
nrf_Receiver.elf:     file format elf32-avr

Sections:
Idx Name          Size      VMA       LMA       File off  Algn
  0 .text         00000e7e  00000000  00000000  00000094  2**1
                  CONTENTS, ALLOC, LOAD, READONLY, CODE
  1 .data         00000240  00800060  00000e7e  00000f12  2**0
                  CONTENTS, ALLOC, LOAD, DATA
  2 .bss          0000017a  008002a0  008002a0  00001152  2**0
                  ALLOC
  3 .stab         00001dac  00000000  00000000  00001154  2**2
                  CONTENTS, READONLY, DEBUGGING
  4 .stabstr      00001106  00000000  00000000  00002f00  2**0
                  CONTENTS, READONLY, DEBUGGING
  5 .comment      00000011  00000000  00000000  00004006  2**0
                  CONTENTS, READONLY

Disassembly of section .text:

00000000 <__vectors>:
   0:	0c 94 2a 00 	jmp	0x54	; 0x54 <__ctors_end>
   4:	0c 94 47 00 	jmp	0x8e	; 0x8e <__bad_interrupt>
   8:	0c 94 47 00 	jmp	0x8e	; 0x8e <__bad_interrupt>
   c:	0c 94 47 00 	jmp	0x8e	; 0x8e <__bad_interrupt>
  10:	0c 94 47 00 	jmp	0x8e	; 0x8e <__bad_interrupt>
  14:	0c 94 66 02 	jmp	0x4cc	; 0x4cc <__vector_5>
  18:	0c 94 47 00 	jmp	0x8e	; 0x8e <__bad_interrupt>
  1c:	0c 94 47 00 	jmp	0x8e	; 0x8e <__bad_interrupt>
  20:	0c 94 47 00 	jmp	0x8e	; 0x8e <__bad_interrupt>
  24:	0c 94 47 00 	jmp	0x8e	; 0x8e <__bad_interrupt>
  28:	0c 94 47 00 	jmp	0x8e	; 0x8e <__bad_interrupt>
  2c:	0c 94 47 00 	jmp	0x8e	; 0x8e <__bad_interrupt>
  30:	0c 94 ef 00 	jmp	0x1de	; 0x1de <__vector_12>
  34:	0c 94 46 03 	jmp	0x68c	; 0x68c <__vector_13>
  38:	0c 94 47 00 	jmp	0x8e	; 0x8e <__bad_interrupt>
  3c:	0c 94 47 00 	jmp	0x8e	; 0x8e <__bad_interrupt>
  40:	0c 94 47 00 	jmp	0x8e	; 0x8e <__bad_interrupt>
  44:	0c 94 47 00 	jmp	0x8e	; 0x8e <__bad_interrupt>
  48:	0c 94 47 00 	jmp	0x8e	; 0x8e <__bad_interrupt>
  4c:	0c 94 47 00 	jmp	0x8e	; 0x8e <__bad_interrupt>
  50:	0c 94 47 00 	jmp	0x8e	; 0x8e <__bad_interrupt>

00000054 <__ctors_end>:
  54:	11 24       	eor	r1, r1
  56:	1f be       	out	0x3f, r1	; 63
  58:	cf e5       	ldi	r28, 0x5F	; 95
  5a:	d8 e0       	ldi	r29, 0x08	; 8
  5c:	de bf       	out	0x3e, r29	; 62
  5e:	cd bf       	out	0x3d, r28	; 61

00000060 <__do_copy_data>:
  60:	12 e0       	ldi	r17, 0x02	; 2
  62:	a0 e6       	ldi	r26, 0x60	; 96
  64:	b0 e0       	ldi	r27, 0x00	; 0
  66:	ee e7       	ldi	r30, 0x7E	; 126
  68:	fe e0       	ldi	r31, 0x0E	; 14
  6a:	02 c0       	rjmp	.+4      	; 0x70 <__do_copy_data+0x10>
  6c:	05 90       	lpm	r0, Z+
  6e:	0d 92       	st	X+, r0
  70:	a0 3a       	cpi	r26, 0xA0	; 160
  72:	b1 07       	cpc	r27, r17
  74:	d9 f7       	brne	.-10     	; 0x6c <__do_copy_data+0xc>

00000076 <__do_clear_bss>:
  76:	14 e0       	ldi	r17, 0x04	; 4
  78:	a0 ea       	ldi	r26, 0xA0	; 160
  7a:	b2 e0       	ldi	r27, 0x02	; 2
  7c:	01 c0       	rjmp	.+2      	; 0x80 <.do_clear_bss_start>

0000007e <.do_clear_bss_loop>:
  7e:	1d 92       	st	X+, r1

00000080 <.do_clear_bss_start>:
  80:	aa 31       	cpi	r26, 0x1A	; 26
  82:	b1 07       	cpc	r27, r17
  84:	e1 f7       	brne	.-8      	; 0x7e <.do_clear_bss_loop>
  86:	0e 94 08 06 	call	0xc10	; 0xc10 <main>
  8a:	0c 94 3d 07 	jmp	0xe7a	; 0xe7a <_exit>

0000008e <__bad_interrupt>:
  8e:	0c 94 00 00 	jmp	0	; 0x0 <__vectors>

00000092 <EF_void_TimerDelete>:
  92:	9a e0       	ldi	r25, 0x0A	; 10
  94:	89 9f       	mul	r24, r25
  96:	f0 01       	movw	r30, r0
  98:	11 24       	eor	r1, r1
  9a:	e0 56       	subi	r30, 0x60	; 96
  9c:	fd 4f       	sbci	r31, 0xFD	; 253
  9e:	14 82       	std	Z+4, r1	; 0x04
  a0:	15 82       	std	Z+5, r1	; 0x05
  a2:	16 82       	std	Z+6, r1	; 0x06
  a4:	17 82       	std	Z+7, r1	; 0x07
  a6:	10 82       	st	Z, r1
  a8:	11 82       	std	Z+1, r1	; 0x01
  aa:	12 82       	std	Z+2, r1	; 0x02
  ac:	13 82       	std	Z+3, r1	; 0x03
  ae:	10 86       	std	Z+8, r1	; 0x08
  b0:	11 86       	std	Z+9, r1	; 0x09
  b2:	08 95       	ret

000000b4 <EF_void_TimerInit>:
  b4:	cf 93       	push	r28
  b6:	0e 94 54 02 	call	0x4a8	; 0x4a8 <EF_void_Timer_PORTinit>
  ba:	8b eb       	ldi	r24, 0xBB	; 187
  bc:	90 e0       	ldi	r25, 0x00	; 0
  be:	0e 94 61 02 	call	0x4c2	; 0x4c2 <EF_void_Timer_SetISRCallBack>
  c2:	c0 e0       	ldi	r28, 0x00	; 0
  c4:	8c 2f       	mov	r24, r28
  c6:	0e 94 49 00 	call	0x92	; 0x92 <EF_void_TimerDelete>
  ca:	cf 5f       	subi	r28, 0xFF	; 255
  cc:	ca 30       	cpi	r28, 0x0A	; 10
  ce:	d1 f7       	brne	.-12     	; 0xc4 <EF_void_TimerInit+0x10>
  d0:	cf 91       	pop	r28
  d2:	08 95       	ret

000000d4 <EF_void_TimerCreate>:
  d4:	0f 93       	push	r16
  d6:	1f 93       	push	r17
  d8:	9a e0       	ldi	r25, 0x0A	; 10
  da:	89 9f       	mul	r24, r25
  dc:	f0 01       	movw	r30, r0
  de:	11 24       	eor	r1, r1
  e0:	e0 56       	subi	r30, 0x60	; 96
  e2:	fd 4f       	sbci	r31, 0xFD	; 253
  e4:	00 81       	ld	r16, Z
  e6:	11 81       	ldd	r17, Z+1	; 0x01
  e8:	22 81       	ldd	r18, Z+2	; 0x02
  ea:	33 81       	ldd	r19, Z+3	; 0x03
  ec:	01 2b       	or	r16, r17
  ee:	02 2b       	or	r16, r18
  f0:	03 2b       	or	r16, r19
  f2:	51 f4       	brne	.+20     	; 0x108 <EF_void_TimerCreate+0x34>
  f4:	40 83       	st	Z, r20
  f6:	51 83       	std	Z+1, r21	; 0x01
  f8:	62 83       	std	Z+2, r22	; 0x02
  fa:	73 83       	std	Z+3, r23	; 0x03
  fc:	14 82       	std	Z+4, r1	; 0x04
  fe:	15 82       	std	Z+5, r1	; 0x05
 100:	16 82       	std	Z+6, r1	; 0x06
 102:	17 82       	std	Z+7, r1	; 0x07
 104:	10 86       	std	Z+8, r1	; 0x08
 106:	11 86       	std	Z+9, r1	; 0x09
 108:	1f 91       	pop	r17
 10a:	0f 91       	pop	r16
 10c:	08 95       	ret

0000010e <EF_void_TimersUpdate>:
 10e:	cf 93       	push	r28
 110:	df 93       	push	r29
 112:	20 e0       	ldi	r18, 0x00	; 0
 114:	30 e0       	ldi	r19, 0x00	; 0
 116:	da e0       	ldi	r29, 0x0A	; 10
 118:	d2 9f       	mul	r29, r18
 11a:	f0 01       	movw	r30, r0
 11c:	d3 9f       	mul	r29, r19
 11e:	f0 0d       	add	r31, r0
 120:	11 24       	eor	r1, r1
 122:	e0 56       	subi	r30, 0x60	; 96
 124:	fd 4f       	sbci	r31, 0xFD	; 253
 126:	c1 85       	ldd	r28, Z+9	; 0x09
 128:	c1 30       	cpi	r28, 0x01	; 1
 12a:	e9 f4       	brne	.+58     	; 0x166 <EF_void_TimersUpdate+0x58>
 12c:	84 81       	ldd	r24, Z+4	; 0x04
 12e:	95 81       	ldd	r25, Z+5	; 0x05
 130:	a6 81       	ldd	r26, Z+6	; 0x06
 132:	b7 81       	ldd	r27, Z+7	; 0x07
 134:	01 96       	adiw	r24, 0x01	; 1
 136:	a1 1d       	adc	r26, r1
 138:	b1 1d       	adc	r27, r1
 13a:	84 83       	std	Z+4, r24	; 0x04
 13c:	95 83       	std	Z+5, r25	; 0x05
 13e:	a6 83       	std	Z+6, r26	; 0x06
 140:	b7 83       	std	Z+7, r27	; 0x07
 142:	44 81       	ldd	r20, Z+4	; 0x04
 144:	55 81       	ldd	r21, Z+5	; 0x05
 146:	66 81       	ldd	r22, Z+6	; 0x06
 148:	77 81       	ldd	r23, Z+7	; 0x07
 14a:	80 81       	ld	r24, Z
 14c:	91 81       	ldd	r25, Z+1	; 0x01
 14e:	a2 81       	ldd	r26, Z+2	; 0x02
 150:	b3 81       	ldd	r27, Z+3	; 0x03
 152:	48 17       	cp	r20, r24
 154:	59 07       	cpc	r21, r25
 156:	6a 07       	cpc	r22, r26
 158:	7b 07       	cpc	r23, r27
 15a:	29 f4       	brne	.+10     	; 0x166 <EF_void_TimersUpdate+0x58>
 15c:	14 82       	std	Z+4, r1	; 0x04
 15e:	15 82       	std	Z+5, r1	; 0x05
 160:	16 82       	std	Z+6, r1	; 0x06
 162:	17 82       	std	Z+7, r1	; 0x07
 164:	c0 87       	std	Z+8, r28	; 0x08
 166:	2f 5f       	subi	r18, 0xFF	; 255
 168:	3f 4f       	sbci	r19, 0xFF	; 255
 16a:	2a 30       	cpi	r18, 0x0A	; 10
 16c:	31 05       	cpc	r19, r1
 16e:	a1 f6       	brne	.-88     	; 0x118 <EF_void_TimersUpdate+0xa>
 170:	df 91       	pop	r29
 172:	cf 91       	pop	r28
 174:	08 95       	ret

00000176 <EF_void_TimerISRCallback>:
 176:	0c 94 87 00 	jmp	0x10e	; 0x10e <EF_void_TimersUpdate>

0000017a <EF_BOOLEAN_TimerCheck>:
 17a:	9a e0       	ldi	r25, 0x0A	; 10
 17c:	89 9f       	mul	r24, r25
 17e:	f0 01       	movw	r30, r0
 180:	11 24       	eor	r1, r1
 182:	e0 56       	subi	r30, 0x60	; 96
 184:	fd 4f       	sbci	r31, 0xFD	; 253
 186:	80 85       	ldd	r24, Z+8	; 0x08
 188:	88 23       	and	r24, r24
 18a:	19 f0       	breq	.+6      	; 0x192 <EF_BOOLEAN_TimerCheck+0x18>
 18c:	10 86       	std	Z+8, r1	; 0x08
 18e:	81 e0       	ldi	r24, 0x01	; 1
 190:	08 95       	ret
 192:	80 e0       	ldi	r24, 0x00	; 0
 194:	08 95       	ret

00000196 <EF_void_TimerStart>:
 196:	9a e0       	ldi	r25, 0x0A	; 10
 198:	89 9f       	mul	r24, r25
 19a:	f0 01       	movw	r30, r0
 19c:	11 24       	eor	r1, r1
 19e:	e0 56       	subi	r30, 0x60	; 96
 1a0:	fd 4f       	sbci	r31, 0xFD	; 253
 1a2:	40 81       	ld	r20, Z
 1a4:	51 81       	ldd	r21, Z+1	; 0x01
 1a6:	62 81       	ldd	r22, Z+2	; 0x02
 1a8:	73 81       	ldd	r23, Z+3	; 0x03
 1aa:	45 2b       	or	r20, r21
 1ac:	46 2b       	or	r20, r22
 1ae:	47 2b       	or	r20, r23
 1b0:	11 f0       	breq	.+4      	; 0x1b6 <EF_void_TimerStart+0x20>
 1b2:	81 e0       	ldi	r24, 0x01	; 1
 1b4:	81 87       	std	Z+9, r24	; 0x09
 1b6:	08 95       	ret

000001b8 <EF_void_TimerStop>:
 1b8:	9a e0       	ldi	r25, 0x0A	; 10
 1ba:	89 9f       	mul	r24, r25
 1bc:	f0 01       	movw	r30, r0
 1be:	11 24       	eor	r1, r1
 1c0:	e0 56       	subi	r30, 0x60	; 96
 1c2:	fd 4f       	sbci	r31, 0xFD	; 253
 1c4:	11 86       	std	Z+9, r1	; 0x09
 1c6:	08 95       	ret

000001c8 <EF_void_TimerReset>:
 1c8:	9a e0       	ldi	r25, 0x0A	; 10
 1ca:	89 9f       	mul	r24, r25
 1cc:	f0 01       	movw	r30, r0
 1ce:	11 24       	eor	r1, r1
 1d0:	e0 56       	subi	r30, 0x60	; 96
 1d2:	fd 4f       	sbci	r31, 0xFD	; 253
 1d4:	14 82       	std	Z+4, r1	; 0x04
 1d6:	15 82       	std	Z+5, r1	; 0x05
 1d8:	16 82       	std	Z+6, r1	; 0x06
 1da:	17 82       	std	Z+7, r1	; 0x07
 1dc:	08 95       	ret

000001de <__vector_12>:
 1de:	1f 92       	push	r1
 1e0:	0f 92       	push	r0
 1e2:	0f b6       	in	r0, 0x3f	; 63
 1e4:	0f 92       	push	r0
 1e6:	11 24       	eor	r1, r1
 1e8:	2f 93       	push	r18
 1ea:	3f 93       	push	r19
 1ec:	4f 93       	push	r20
 1ee:	8f 93       	push	r24
 1f0:	9f 93       	push	r25
 1f2:	ef 93       	push	r30
 1f4:	ff 93       	push	r31
 1f6:	4f b1       	in	r20, 0x0f	; 15
 1f8:	80 91 12 04 	lds	r24, 0x0412
 1fc:	90 e0       	ldi	r25, 0x00	; 0
 1fe:	20 91 13 04 	lds	r18, 0x0413
 202:	30 91 14 04 	lds	r19, 0x0414
 206:	28 17       	cp	r18, r24
 208:	39 07       	cpc	r19, r25
 20a:	31 f1       	breq	.+76     	; 0x258 <__vector_12+0x7a>
 20c:	e0 91 16 04 	lds	r30, 0x0416
 210:	f0 91 17 04 	lds	r31, 0x0417
 214:	40 83       	st	Z, r20
 216:	80 91 16 04 	lds	r24, 0x0416
 21a:	90 91 17 04 	lds	r25, 0x0417
 21e:	01 96       	adiw	r24, 0x01	; 1
 220:	90 93 17 04 	sts	0x0417, r25
 224:	80 93 16 04 	sts	0x0416, r24
 228:	20 91 10 04 	lds	r18, 0x0410
 22c:	30 91 11 04 	lds	r19, 0x0411
 230:	82 17       	cp	r24, r18
 232:	93 07       	cpc	r25, r19
 234:	41 f4       	brne	.+16     	; 0x246 <__vector_12+0x68>
 236:	80 91 0e 04 	lds	r24, 0x040E
 23a:	90 91 0f 04 	lds	r25, 0x040F
 23e:	90 93 17 04 	sts	0x0417, r25
 242:	80 93 16 04 	sts	0x0416, r24
 246:	80 91 13 04 	lds	r24, 0x0413
 24a:	90 91 14 04 	lds	r25, 0x0414
 24e:	01 96       	adiw	r24, 0x01	; 1
 250:	90 93 14 04 	sts	0x0414, r25
 254:	80 93 13 04 	sts	0x0413, r24
 258:	ff 91       	pop	r31
 25a:	ef 91       	pop	r30
 25c:	9f 91       	pop	r25
 25e:	8f 91       	pop	r24
 260:	4f 91       	pop	r20
 262:	3f 91       	pop	r19
 264:	2f 91       	pop	r18
 266:	0f 90       	pop	r0
 268:	0f be       	out	0x3f, r0	; 63
 26a:	0f 90       	pop	r0
 26c:	1f 90       	pop	r1
 26e:	18 95       	reti

00000270 <EF_CalculateCrc>:
 270:	0f 93       	push	r16
 272:	1f 93       	push	r17
 274:	cf 93       	push	r28
 276:	df 93       	push	r29
 278:	c6 2f       	mov	r28, r22
 27a:	fb 01       	movw	r30, r22
 27c:	90 e0       	ldi	r25, 0x00	; 0
 27e:	60 e0       	ldi	r22, 0x00	; 0
 280:	d5 e0       	ldi	r29, 0x05	; 5
 282:	2e 2f       	mov	r18, r30
 284:	2c 1b       	sub	r18, r28
 286:	28 17       	cp	r18, r24
 288:	f8 f4       	brcc	.+62     	; 0x2c8 <EF_CalculateCrc+0x58>
 28a:	b1 91       	ld	r27, Z+
 28c:	28 e0       	ldi	r18, 0x08	; 8
 28e:	30 e0       	ldi	r19, 0x00	; 0
 290:	70 e8       	ldi	r23, 0x80	; 128
 292:	19 2f       	mov	r17, r25
 294:	11 1f       	adc	r17, r17
 296:	11 27       	eor	r17, r17
 298:	11 1f       	adc	r17, r17
 29a:	99 0f       	add	r25, r25
 29c:	a6 2f       	mov	r26, r22
 29e:	aa 1f       	adc	r26, r26
 2a0:	aa 27       	eor	r26, r26
 2a2:	aa 1f       	adc	r26, r26
 2a4:	9a 2b       	or	r25, r26
 2a6:	66 0f       	add	r22, r22
 2a8:	a1 e0       	ldi	r26, 0x01	; 1
 2aa:	07 2f       	mov	r16, r23
 2ac:	0b 23       	and	r16, r27
 2ae:	09 f4       	brne	.+2      	; 0x2b2 <EF_CalculateCrc+0x42>
 2b0:	a0 e0       	ldi	r26, 0x00	; 0
 2b2:	a1 17       	cp	r26, r17
 2b4:	11 f0       	breq	.+4      	; 0x2ba <EF_CalculateCrc+0x4a>
 2b6:	6d 27       	eor	r22, r29
 2b8:	90 58       	subi	r25, 0x80	; 128
 2ba:	76 95       	lsr	r23
 2bc:	21 50       	subi	r18, 0x01	; 1
 2be:	31 09       	sbc	r19, r1
 2c0:	21 15       	cp	r18, r1
 2c2:	31 05       	cpc	r19, r1
 2c4:	31 f7       	brne	.-52     	; 0x292 <EF_CalculateCrc+0x22>
 2c6:	dd cf       	rjmp	.-70     	; 0x282 <EF_CalculateCrc+0x12>
 2c8:	fa 01       	movw	r30, r20
 2ca:	90 83       	st	Z, r25
 2cc:	61 83       	std	Z+1, r22	; 0x01
 2ce:	df 91       	pop	r29
 2d0:	cf 91       	pop	r28
 2d2:	1f 91       	pop	r17
 2d4:	0f 91       	pop	r16
 2d6:	08 95       	ret

000002d8 <EF_get_SourceType>:
 2d8:	cf 93       	push	r28
 2da:	df 93       	push	r29
 2dc:	c8 2f       	mov	r28, r24
 2de:	d8 2f       	mov	r29, r24
 2e0:	d2 70       	andi	r29, 0x02	; 2
 2e2:	81 ff       	sbrs	r24, 1
 2e4:	04 c0       	rjmp	.+8      	; 0x2ee <EF_get_SourceType+0x16>
 2e6:	89 e9       	ldi	r24, 0x99	; 153
 2e8:	90 e0       	ldi	r25, 0x00	; 0
 2ea:	0e 94 2d 03 	call	0x65a	; 0x65a <EF_void_UART_SendString>
 2ee:	c0 ff       	sbrs	r28, 0
 2f0:	02 c0       	rjmp	.+4      	; 0x2f6 <EF_get_SourceType+0x1e>
 2f2:	81 e0       	ldi	r24, 0x01	; 1
 2f4:	d1 11       	cpse	r29, r1
 2f6:	80 e0       	ldi	r24, 0x00	; 0
 2f8:	df 91       	pop	r29
 2fa:	cf 91       	pop	r28
 2fc:	08 95       	ret

000002fe <EF_parseFrame>:
 2fe:	df 92       	push	r13
 300:	ef 92       	push	r14
 302:	ff 92       	push	r15
 304:	0f 93       	push	r16
 306:	1f 93       	push	r17
 308:	cf 93       	push	r28
 30a:	df 93       	push	r29
 30c:	00 d0       	rcall	.+0      	; 0x30e <EF_parseFrame+0x10>
 30e:	00 d0       	rcall	.+0      	; 0x310 <EF_parseFrame+0x12>
 310:	cd b7       	in	r28, 0x3d	; 61
 312:	de b7       	in	r29, 0x3e	; 62
 314:	8c 01       	movw	r16, r24
 316:	7b 01       	movw	r14, r22
 318:	1c 82       	std	Y+4, r1	; 0x04
 31a:	1b 82       	std	Y+3, r1	; 0x03
 31c:	dc 01       	movw	r26, r24
 31e:	8c 91       	ld	r24, X
 320:	8f 3e       	cpi	r24, 0xEF	; 239
 322:	09 f0       	breq	.+2      	; 0x326 <EF_parseFrame+0x28>
 324:	6c c0       	rjmp	.+216    	; 0x3fe <EF_parseFrame+0x100>
 326:	5f 96       	adiw	r26, 0x1f	; 31
 328:	8c 91       	ld	r24, X
 32a:	5f 97       	sbiw	r26, 0x1f	; 31
 32c:	8e 3f       	cpi	r24, 0xFE	; 254
 32e:	09 f0       	breq	.+2      	; 0x332 <EF_parseFrame+0x34>
 330:	69 c0       	rjmp	.+210    	; 0x404 <EF_parseFrame+0x106>
 332:	5d 96       	adiw	r26, 0x1d	; 29
 334:	8c 91       	ld	r24, X
 336:	5d 97       	sbiw	r26, 0x1d	; 29
 338:	89 83       	std	Y+1, r24	; 0x01
 33a:	5e 96       	adiw	r26, 0x1e	; 30
 33c:	8c 91       	ld	r24, X
 33e:	8a 83       	std	Y+2, r24	; 0x02
 340:	ae 01       	movw	r20, r28
 342:	4d 5f       	subi	r20, 0xFD	; 253
 344:	5f 4f       	sbci	r21, 0xFF	; 255
 346:	b8 01       	movw	r22, r16
 348:	8c e1       	ldi	r24, 0x1C	; 28
 34a:	0e 94 38 01 	call	0x270	; 0x270 <EF_CalculateCrc>
 34e:	42 e0       	ldi	r20, 0x02	; 2
 350:	50 e0       	ldi	r21, 0x00	; 0
 352:	be 01       	movw	r22, r28
 354:	6d 5f       	subi	r22, 0xFD	; 253
 356:	7f 4f       	sbci	r23, 0xFF	; 255
 358:	ce 01       	movw	r24, r28
 35a:	01 96       	adiw	r24, 0x01	; 1
 35c:	0e 94 ff 06 	call	0xdfe	; 0xdfe <memcmp>
 360:	89 2b       	or	r24, r25
 362:	09 f0       	breq	.+2      	; 0x366 <EF_parseFrame+0x68>
 364:	52 c0       	rjmp	.+164    	; 0x40a <EF_parseFrame+0x10c>
 366:	f8 01       	movw	r30, r16
 368:	44 81       	ldd	r20, Z+4	; 0x04
 36a:	50 e0       	ldi	r21, 0x00	; 0
 36c:	54 2f       	mov	r21, r20
 36e:	44 27       	eor	r20, r20
 370:	83 81       	ldd	r24, Z+3	; 0x03
 372:	48 0f       	add	r20, r24
 374:	51 1d       	adc	r21, r1
 376:	39 96       	adiw	r30, 0x09	; 9
 378:	20 e0       	ldi	r18, 0x00	; 0
 37a:	30 e0       	ldi	r19, 0x00	; 0
 37c:	81 91       	ld	r24, Z+
 37e:	d7 01       	movw	r26, r14
 380:	a2 0f       	add	r26, r18
 382:	b3 1f       	adc	r27, r19
 384:	1a 96       	adiw	r26, 0x0a	; 10
 386:	8c 93       	st	X, r24
 388:	2f 5f       	subi	r18, 0xFF	; 255
 38a:	3f 4f       	sbci	r19, 0xFF	; 255
 38c:	24 31       	cpi	r18, 0x14	; 20
 38e:	31 05       	cpc	r19, r1
 390:	a9 f7       	brne	.-22     	; 0x37c <EF_parseFrame+0x7e>
 392:	d8 01       	movw	r26, r16
 394:	17 96       	adiw	r26, 0x07	; 7
 396:	8c 91       	ld	r24, X
 398:	17 97       	sbiw	r26, 0x07	; 7
 39a:	f7 01       	movw	r30, r14
 39c:	87 83       	std	Z+7, r24	; 0x07
 39e:	8c 91       	ld	r24, X
 3a0:	80 83       	st	Z, r24
 3a2:	11 96       	adiw	r26, 0x01	; 1
 3a4:	8c 91       	ld	r24, X
 3a6:	11 97       	sbiw	r26, 0x01	; 1
 3a8:	81 83       	std	Z+1, r24	; 0x01
 3aa:	12 96       	adiw	r26, 0x02	; 2
 3ac:	8c 91       	ld	r24, X
 3ae:	12 97       	sbiw	r26, 0x02	; 2
 3b0:	82 83       	std	Z+2, r24	; 0x02
 3b2:	54 83       	std	Z+4, r21	; 0x04
 3b4:	43 83       	std	Z+3, r20	; 0x03
 3b6:	15 96       	adiw	r26, 0x05	; 5
 3b8:	ec 91       	ld	r30, X
 3ba:	e5 30       	cpi	r30, 0x05	; 5
 3bc:	28 f4       	brcc	.+10     	; 0x3c8 <EF_parseFrame+0xca>
 3be:	f0 e0       	ldi	r31, 0x00	; 0
 3c0:	e5 55       	subi	r30, 0x55	; 85
 3c2:	ff 4f       	sbci	r31, 0xFF	; 255
 3c4:	80 81       	ld	r24, Z
 3c6:	01 c0       	rjmp	.+2      	; 0x3ca <EF_parseFrame+0xcc>
 3c8:	85 e0       	ldi	r24, 0x05	; 5
 3ca:	d7 01       	movw	r26, r14
 3cc:	15 96       	adiw	r26, 0x05	; 5
 3ce:	8c 93       	st	X, r24
 3d0:	f8 01       	movw	r30, r16
 3d2:	86 81       	ldd	r24, Z+6	; 0x06
 3d4:	0e 94 6c 01 	call	0x2d8	; 0x2d8 <EF_get_SourceType>
 3d8:	d7 01       	movw	r26, r14
 3da:	16 96       	adiw	r26, 0x06	; 6
 3dc:	8c 93       	st	X, r24
 3de:	16 97       	sbiw	r26, 0x06	; 6
 3e0:	f8 01       	movw	r30, r16
 3e2:	80 85       	ldd	r24, Z+8	; 0x08
 3e4:	19 96       	adiw	r26, 0x09	; 9
 3e6:	8c 93       	st	X, r24
 3e8:	19 97       	sbiw	r26, 0x09	; 9
 3ea:	25 8d       	ldd	r18, Z+29	; 0x1d
 3ec:	30 e0       	ldi	r19, 0x00	; 0
 3ee:	5f 96       	adiw	r26, 0x1f	; 31
 3f0:	3c 93       	st	X, r19
 3f2:	2e 93       	st	-X, r18
 3f4:	5e 97       	sbiw	r26, 0x1e	; 30
 3f6:	87 8d       	ldd	r24, Z+31	; 0x1f
 3f8:	90 96       	adiw	r26, 0x20	; 32
 3fa:	8c 93       	st	X, r24
 3fc:	08 c0       	rjmp	.+16     	; 0x40e <EF_parseFrame+0x110>
 3fe:	92 e0       	ldi	r25, 0x02	; 2
 400:	d9 2e       	mov	r13, r25
 402:	05 c0       	rjmp	.+10     	; 0x40e <EF_parseFrame+0x110>
 404:	83 e0       	ldi	r24, 0x03	; 3
 406:	d8 2e       	mov	r13, r24
 408:	02 c0       	rjmp	.+4      	; 0x40e <EF_parseFrame+0x110>
 40a:	dd 24       	eor	r13, r13
 40c:	d3 94       	inc	r13
 40e:	8d 2d       	mov	r24, r13
 410:	0f 90       	pop	r0
 412:	0f 90       	pop	r0
 414:	0f 90       	pop	r0
 416:	0f 90       	pop	r0
 418:	df 91       	pop	r29
 41a:	cf 91       	pop	r28
 41c:	1f 91       	pop	r17
 41e:	0f 91       	pop	r16
 420:	ff 90       	pop	r15
 422:	ef 90       	pop	r14
 424:	df 90       	pop	r13
 426:	08 95       	ret

00000428 <get_DaysPerMonth>:
 428:	88 23       	and	r24, r24
 42a:	31 f0       	breq	.+12     	; 0x438 <get_DaysPerMonth+0x10>
 42c:	e8 2f       	mov	r30, r24
 42e:	f0 e0       	ldi	r31, 0x00	; 0
 430:	e0 55       	subi	r30, 0x50	; 80
 432:	ff 4f       	sbci	r31, 0xFF	; 255
 434:	80 81       	ld	r24, Z
 436:	08 95       	ret
 438:	8f ef       	ldi	r24, 0xFF	; 255
 43a:	08 95       	ret

0000043c <EF_SpiInit>:
 43c:	81 30       	cpi	r24, 0x01	; 1
 43e:	31 f4       	brne	.+12     	; 0x44c <EF_SpiInit+0x10>
 440:	87 b3       	in	r24, 0x17	; 23
 442:	80 6b       	ori	r24, 0xB0	; 176
 444:	87 bb       	out	0x17, r24	; 23
 446:	81 e5       	ldi	r24, 0x51	; 81
 448:	8d b9       	out	0x0d, r24	; 13
 44a:	01 c0       	rjmp	.+2      	; 0x44e <EF_SpiInit+0x12>
 44c:	be 9a       	sbi	0x17, 6	; 23
 44e:	45 e0       	ldi	r20, 0x05	; 5
 450:	50 e0       	ldi	r21, 0x00	; 0
 452:	60 e0       	ldi	r22, 0x00	; 0
 454:	70 e0       	ldi	r23, 0x00	; 0
 456:	87 e0       	ldi	r24, 0x07	; 7
 458:	0c 94 6a 00 	jmp	0xd4	; 0xd4 <EF_void_TimerCreate>

0000045c <EF_SpiTransfer>:
 45c:	1f 93       	push	r17
 45e:	cf 93       	push	r28
 460:	df 93       	push	r29
 462:	18 2f       	mov	r17, r24
 464:	eb 01       	movw	r28, r22
 466:	87 e0       	ldi	r24, 0x07	; 7
 468:	0e 94 cb 00 	call	0x196	; 0x196 <EF_void_TimerStart>
 46c:	1f b9       	out	0x0f, r17	; 15
 46e:	77 9b       	sbis	0x0e, 7	; 14
 470:	11 c0       	rjmp	.+34     	; 0x494 <EF_SpiTransfer+0x38>
 472:	8f b1       	in	r24, 0x0f	; 15
 474:	88 83       	st	Y, r24
 476:	87 e0       	ldi	r24, 0x07	; 7
 478:	0e 94 bd 00 	call	0x17a	; 0x17a <EF_BOOLEAN_TimerCheck>
 47c:	c8 2f       	mov	r28, r24
 47e:	87 e0       	ldi	r24, 0x07	; 7
 480:	0e 94 dc 00 	call	0x1b8	; 0x1b8 <EF_void_TimerStop>
 484:	87 e0       	ldi	r24, 0x07	; 7
 486:	0e 94 e4 00 	call	0x1c8	; 0x1c8 <EF_void_TimerReset>
 48a:	81 e0       	ldi	r24, 0x01	; 1
 48c:	cc 23       	and	r28, r28
 48e:	41 f0       	breq	.+16     	; 0x4a0 <EF_SpiTransfer+0x44>
 490:	80 e0       	ldi	r24, 0x00	; 0
 492:	06 c0       	rjmp	.+12     	; 0x4a0 <EF_SpiTransfer+0x44>
 494:	87 e0       	ldi	r24, 0x07	; 7
 496:	0e 94 bd 00 	call	0x17a	; 0x17a <EF_BOOLEAN_TimerCheck>
 49a:	88 23       	and	r24, r24
 49c:	41 f3       	breq	.-48     	; 0x46e <EF_SpiTransfer+0x12>
 49e:	e9 cf       	rjmp	.-46     	; 0x472 <EF_SpiTransfer+0x16>
 4a0:	df 91       	pop	r29
 4a2:	cf 91       	pop	r28
 4a4:	1f 91       	pop	r17
 4a6:	08 95       	ret

000004a8 <EF_void_Timer_PORTinit>:
 4a8:	85 b5       	in	r24, 0x25	; 37
 4aa:	87 60       	ori	r24, 0x07	; 7
 4ac:	85 bd       	out	0x25, r24	; 37
 4ae:	89 e7       	ldi	r24, 0x79	; 121
 4b0:	84 bd       	out	0x24, r24	; 36
 4b2:	89 b7       	in	r24, 0x39	; 57
 4b4:	80 64       	ori	r24, 0x40	; 64
 4b6:	89 bf       	out	0x39, r24	; 57
 4b8:	88 b7       	in	r24, 0x38	; 56
 4ba:	80 64       	ori	r24, 0x40	; 64
 4bc:	88 bf       	out	0x38, r24	; 56
 4be:	78 94       	sei
 4c0:	08 95       	ret

000004c2 <EF_void_Timer_SetISRCallBack>:
 4c2:	90 93 05 03 	sts	0x0305, r25
 4c6:	80 93 04 03 	sts	0x0304, r24
 4ca:	08 95       	ret

000004cc <__vector_5>:
 4cc:	1f 92       	push	r1
 4ce:	0f 92       	push	r0
 4d0:	0f b6       	in	r0, 0x3f	; 63
 4d2:	0f 92       	push	r0
 4d4:	11 24       	eor	r1, r1
 4d6:	2f 93       	push	r18
 4d8:	3f 93       	push	r19
 4da:	4f 93       	push	r20
 4dc:	5f 93       	push	r21
 4de:	6f 93       	push	r22
 4e0:	7f 93       	push	r23
 4e2:	8f 93       	push	r24
 4e4:	9f 93       	push	r25
 4e6:	af 93       	push	r26
 4e8:	bf 93       	push	r27
 4ea:	ef 93       	push	r30
 4ec:	ff 93       	push	r31
 4ee:	e0 91 04 03 	lds	r30, 0x0304
 4f2:	f0 91 05 03 	lds	r31, 0x0305
 4f6:	30 97       	sbiw	r30, 0x00	; 0
 4f8:	09 f0       	breq	.+2      	; 0x4fc <__vector_5+0x30>
 4fa:	09 95       	icall
 4fc:	89 e7       	ldi	r24, 0x79	; 121
 4fe:	84 bd       	out	0x24, r24	; 36
 500:	88 b7       	in	r24, 0x38	; 56
 502:	80 64       	ori	r24, 0x40	; 64
 504:	88 bf       	out	0x38, r24	; 56
 506:	ff 91       	pop	r31
 508:	ef 91       	pop	r30
 50a:	bf 91       	pop	r27
 50c:	af 91       	pop	r26
 50e:	9f 91       	pop	r25
 510:	8f 91       	pop	r24
 512:	7f 91       	pop	r23
 514:	6f 91       	pop	r22
 516:	5f 91       	pop	r21
 518:	4f 91       	pop	r20
 51a:	3f 91       	pop	r19
 51c:	2f 91       	pop	r18
 51e:	0f 90       	pop	r0
 520:	0f be       	out	0x3f, r0	; 63
 522:	0f 90       	pop	r0
 524:	1f 90       	pop	r1
 526:	18 95       	reti

00000528 <EF_void_UART_Init>:
 528:	cf 92       	push	r12
 52a:	df 92       	push	r13
 52c:	ef 92       	push	r14
 52e:	ff 92       	push	r15
 530:	cf 93       	push	r28
 532:	df 93       	push	r29
 534:	ec 01       	movw	r28, r24
 536:	10 92 09 03 	sts	0x0309, r1
 53a:	10 92 08 03 	sts	0x0308, r1
 53e:	10 92 07 03 	sts	0x0307, r1
 542:	10 92 06 03 	sts	0x0306, r1
 546:	1a b8       	out	0x0a, r1	; 10
 548:	10 bc       	out	0x20, r1	; 32
 54a:	28 81       	ld	r18, Y
 54c:	39 81       	ldd	r19, Y+1	; 0x01
 54e:	4a 81       	ldd	r20, Y+2	; 0x02
 550:	5b 81       	ldd	r21, Y+3	; 0x03
 552:	84 e0       	ldi	r24, 0x04	; 4
 554:	22 0f       	add	r18, r18
 556:	33 1f       	adc	r19, r19
 558:	44 1f       	adc	r20, r20
 55a:	55 1f       	adc	r21, r21
 55c:	8a 95       	dec	r24
 55e:	d1 f7       	brne	.-12     	; 0x554 <EF_void_UART_Init+0x2c>
 560:	60 e0       	ldi	r22, 0x00	; 0
 562:	72 e1       	ldi	r23, 0x12	; 18
 564:	8a e7       	ldi	r24, 0x7A	; 122
 566:	90 e0       	ldi	r25, 0x00	; 0
 568:	0e 94 c9 06 	call	0xd92	; 0xd92 <__udivmodsi4>
 56c:	21 50       	subi	r18, 0x01	; 1
 56e:	31 09       	sbc	r19, r1
 570:	41 09       	sbc	r20, r1
 572:	51 09       	sbc	r21, r1
 574:	c3 2e       	mov	r12, r19
 576:	d4 2e       	mov	r13, r20
 578:	e5 2e       	mov	r14, r21
 57a:	ff 24       	eor	r15, r15
 57c:	c0 bc       	out	0x20, r12	; 32
 57e:	29 b9       	out	0x09, r18	; 9
 580:	8f 81       	ldd	r24, Y+7	; 0x07
 582:	88 23       	and	r24, r24
 584:	11 f0       	breq	.+4      	; 0x58a <EF_void_UART_Init+0x62>
 586:	57 9a       	sbi	0x0a, 7	; 10
 588:	78 94       	sei
 58a:	88 85       	ldd	r24, Y+8	; 0x08
 58c:	88 23       	and	r24, r24
 58e:	11 f0       	breq	.+4      	; 0x594 <EF_void_UART_Init+0x6c>
 590:	56 9a       	sbi	0x0a, 6	; 10
 592:	78 94       	sei
 594:	89 85       	ldd	r24, Y+9	; 0x09
 596:	81 11       	cpse	r24, r1
 598:	54 9a       	sbi	0x0a, 4	; 10
 59a:	8a 85       	ldd	r24, Y+10	; 0x0a
 59c:	81 11       	cpse	r24, r1
 59e:	53 9a       	sbi	0x0a, 3	; 10
 5a0:	20 b5       	in	r18, 0x20	; 32
 5a2:	8e 81       	ldd	r24, Y+6	; 0x06
 5a4:	30 e1       	ldi	r19, 0x10	; 16
 5a6:	83 9f       	mul	r24, r19
 5a8:	c0 01       	movw	r24, r0
 5aa:	11 24       	eor	r1, r1
 5ac:	28 2b       	or	r18, r24
 5ae:	20 bd       	out	0x20, r18	; 32
 5b0:	20 b5       	in	r18, 0x20	; 32
 5b2:	8d 81       	ldd	r24, Y+5	; 0x05
 5b4:	38 e0       	ldi	r19, 0x08	; 8
 5b6:	83 9f       	mul	r24, r19
 5b8:	c0 01       	movw	r24, r0
 5ba:	11 24       	eor	r1, r1
 5bc:	28 2b       	or	r18, r24
 5be:	20 bd       	out	0x20, r18	; 32
 5c0:	8c 81       	ldd	r24, Y+4	; 0x04
 5c2:	89 30       	cpi	r24, 0x09	; 9
 5c4:	11 f4       	brne	.+4      	; 0x5ca <EF_void_UART_Init+0xa2>
 5c6:	52 9a       	sbi	0x0a, 2	; 10
 5c8:	0c c0       	rjmp	.+24     	; 0x5e2 <EF_void_UART_Init+0xba>
 5ca:	85 30       	cpi	r24, 0x05	; 5
 5cc:	69 f0       	breq	.+26     	; 0x5e8 <EF_void_UART_Init+0xc0>
 5ce:	86 30       	cpi	r24, 0x06	; 6
 5d0:	19 f4       	brne	.+6      	; 0x5d8 <EF_void_UART_Init+0xb0>
 5d2:	80 b5       	in	r24, 0x20	; 32
 5d4:	82 68       	ori	r24, 0x82	; 130
 5d6:	07 c0       	rjmp	.+14     	; 0x5e6 <EF_void_UART_Init+0xbe>
 5d8:	87 30       	cpi	r24, 0x07	; 7
 5da:	19 f4       	brne	.+6      	; 0x5e2 <EF_void_UART_Init+0xba>
 5dc:	80 b5       	in	r24, 0x20	; 32
 5de:	84 68       	ori	r24, 0x84	; 132
 5e0:	02 c0       	rjmp	.+4      	; 0x5e6 <EF_void_UART_Init+0xbe>
 5e2:	80 b5       	in	r24, 0x20	; 32
 5e4:	86 68       	ori	r24, 0x86	; 134
 5e6:	80 bd       	out	0x20, r24	; 32
 5e8:	df 91       	pop	r29
 5ea:	cf 91       	pop	r28
 5ec:	ff 90       	pop	r15
 5ee:	ef 90       	pop	r14
 5f0:	df 90       	pop	r13
 5f2:	cf 90       	pop	r12
 5f4:	08 95       	ret

000005f6 <EF_void_UART_PutChar>:
 5f6:	5d 9b       	sbis	0x0b, 5	; 11
 5f8:	fe cf       	rjmp	.-4      	; 0x5f6 <EF_void_UART_PutChar>
 5fa:	8c b9       	out	0x0c, r24	; 12
 5fc:	08 95       	ret

000005fe <EF_void_UART_Send_Integer>:
 5fe:	ff 92       	push	r15
 600:	0f 93       	push	r16
 602:	1f 93       	push	r17
 604:	cf 93       	push	r28
 606:	df 93       	push	r29
 608:	00 d0       	rcall	.+0      	; 0x60a <EF_void_UART_Send_Integer+0xc>
 60a:	00 d0       	rcall	.+0      	; 0x60c <EF_void_UART_Send_Integer+0xe>
 60c:	00 d0       	rcall	.+0      	; 0x60e <EF_void_UART_Send_Integer+0x10>
 60e:	cd b7       	in	r28, 0x3d	; 61
 610:	de b7       	in	r29, 0x3e	; 62
 612:	8e 01       	movw	r16, r28
 614:	0f 5f       	subi	r16, 0xFF	; 255
 616:	1f 4f       	sbci	r17, 0xFF	; 255
 618:	26 e0       	ldi	r18, 0x06	; 6
 61a:	f8 01       	movw	r30, r16
 61c:	11 92       	st	Z+, r1
 61e:	2a 95       	dec	r18
 620:	e9 f7       	brne	.-6      	; 0x61c <EF_void_UART_Send_Integer+0x1e>
 622:	4a e0       	ldi	r20, 0x0A	; 10
 624:	50 e0       	ldi	r21, 0x00	; 0
 626:	b8 01       	movw	r22, r16
 628:	0e 94 0c 07 	call	0xe18	; 0xe18 <itoa>
 62c:	f1 2c       	mov	r15, r1
 62e:	f8 01       	movw	r30, r16
 630:	ef 0d       	add	r30, r15
 632:	f1 1d       	adc	r31, r1
 634:	80 81       	ld	r24, Z
 636:	88 23       	and	r24, r24
 638:	21 f0       	breq	.+8      	; 0x642 <EF_void_UART_Send_Integer+0x44>
 63a:	0e 94 fb 02 	call	0x5f6	; 0x5f6 <EF_void_UART_PutChar>
 63e:	f3 94       	inc	r15
 640:	f6 cf       	rjmp	.-20     	; 0x62e <EF_void_UART_Send_Integer+0x30>
 642:	26 96       	adiw	r28, 0x06	; 6
 644:	0f b6       	in	r0, 0x3f	; 63
 646:	f8 94       	cli
 648:	de bf       	out	0x3e, r29	; 62
 64a:	0f be       	out	0x3f, r0	; 63
 64c:	cd bf       	out	0x3d, r28	; 61
 64e:	df 91       	pop	r29
 650:	cf 91       	pop	r28
 652:	1f 91       	pop	r17
 654:	0f 91       	pop	r16
 656:	ff 90       	pop	r15
 658:	08 95       	ret

0000065a <EF_void_UART_SendString>:
 65a:	1f 93       	push	r17
 65c:	cf 93       	push	r28
 65e:	df 93       	push	r29
 660:	ec 01       	movw	r28, r24
 662:	10 e0       	ldi	r17, 0x00	; 0
 664:	fe 01       	movw	r30, r28
 666:	e1 0f       	add	r30, r17
 668:	f1 1d       	adc	r31, r1
 66a:	80 81       	ld	r24, Z
 66c:	88 23       	and	r24, r24
 66e:	51 f0       	breq	.+20     	; 0x684 <EF_void_UART_SendString+0x2a>
 670:	0e 94 fb 02 	call	0x5f6	; 0x5f6 <EF_void_UART_PutChar>
 674:	8f e6       	ldi	r24, 0x6F	; 111
 676:	97 e1       	ldi	r25, 0x17	; 23
 678:	01 97       	sbiw	r24, 0x01	; 1
 67a:	f1 f7       	brne	.-4      	; 0x678 <EF_void_UART_SendString+0x1e>
 67c:	00 c0       	rjmp	.+0      	; 0x67e <EF_void_UART_SendString+0x24>
 67e:	00 00       	nop
 680:	1f 5f       	subi	r17, 0xFF	; 255
 682:	f0 cf       	rjmp	.-32     	; 0x664 <EF_void_UART_SendString+0xa>
 684:	df 91       	pop	r29
 686:	cf 91       	pop	r28
 688:	1f 91       	pop	r17
 68a:	08 95       	ret

0000068c <__vector_13>:
 68c:	1f 92       	push	r1
 68e:	0f 92       	push	r0
 690:	0f b6       	in	r0, 0x3f	; 63
 692:	0f 92       	push	r0
 694:	11 24       	eor	r1, r1
 696:	2f 93       	push	r18
 698:	3f 93       	push	r19
 69a:	4f 93       	push	r20
 69c:	5f 93       	push	r21
 69e:	6f 93       	push	r22
 6a0:	7f 93       	push	r23
 6a2:	8f 93       	push	r24
 6a4:	9f 93       	push	r25
 6a6:	ef 93       	push	r30
 6a8:	ff 93       	push	r31
 6aa:	7c b1       	in	r23, 0x0c	; 12
 6ac:	6b b1       	in	r22, 0x0b	; 11
 6ae:	68 71       	andi	r22, 0x18	; 24
 6b0:	80 91 08 03 	lds	r24, 0x0308
 6b4:	90 91 09 03 	lds	r25, 0x0309
 6b8:	01 96       	adiw	r24, 0x01	; 1
 6ba:	99 27       	eor	r25, r25
 6bc:	40 91 06 03 	lds	r20, 0x0306
 6c0:	50 91 07 03 	lds	r21, 0x0307
 6c4:	9c 01       	movw	r18, r24
 6c6:	20 58       	subi	r18, 0x80	; 128
 6c8:	3f 4f       	sbci	r19, 0xFF	; 255
 6ca:	33 27       	eor	r19, r19
 6cc:	24 17       	cp	r18, r20
 6ce:	35 07       	cpc	r19, r21
 6d0:	11 f4       	brne	.+4      	; 0x6d6 <__vector_13+0x4a>
 6d2:	10 92 0c 04 	sts	0x040C, r1
 6d6:	20 91 06 03 	lds	r18, 0x0306
 6da:	30 91 07 03 	lds	r19, 0x0307
 6de:	82 17       	cp	r24, r18
 6e0:	93 07       	cpc	r25, r19
 6e2:	29 f4       	brne	.+10     	; 0x6ee <__vector_13+0x62>
 6e4:	81 e0       	ldi	r24, 0x01	; 1
 6e6:	80 93 0d 04 	sts	0x040D, r24
 6ea:	6f ef       	ldi	r22, 0xFF	; 255
 6ec:	08 c0       	rjmp	.+16     	; 0x6fe <__vector_13+0x72>
 6ee:	90 93 09 03 	sts	0x0309, r25
 6f2:	80 93 08 03 	sts	0x0308, r24
 6f6:	fc 01       	movw	r30, r24
 6f8:	e5 5f       	subi	r30, 0xF5	; 245
 6fa:	fc 4f       	sbci	r31, 0xFC	; 252
 6fc:	70 83       	st	Z, r23
 6fe:	60 93 0a 03 	sts	0x030A, r22
 702:	ff 91       	pop	r31
 704:	ef 91       	pop	r30
 706:	9f 91       	pop	r25
 708:	8f 91       	pop	r24
 70a:	7f 91       	pop	r23
 70c:	6f 91       	pop	r22
 70e:	5f 91       	pop	r21
 710:	4f 91       	pop	r20
 712:	3f 91       	pop	r19
 714:	2f 91       	pop	r18
 716:	0f 90       	pop	r0
 718:	0f be       	out	0x3f, r0	; 63
 71a:	0f 90       	pop	r0
 71c:	1f 90       	pop	r1
 71e:	18 95       	reti

00000720 <EF_nrf24l01_readregister>:
 720:	cf 93       	push	r28
 722:	df 93       	push	r29
 724:	1f 92       	push	r1
 726:	cd b7       	in	r28, 0x3d	; 61
 728:	de b7       	in	r29, 0x3e	; 62
 72a:	19 82       	std	Y+1, r1	; 0x01
 72c:	c4 98       	cbi	0x18, 4	; 24
 72e:	60 e0       	ldi	r22, 0x00	; 0
 730:	70 e0       	ldi	r23, 0x00	; 0
 732:	8f 71       	andi	r24, 0x1F	; 31
 734:	0e 94 2e 02 	call	0x45c	; 0x45c <EF_SpiTransfer>
 738:	be 01       	movw	r22, r28
 73a:	6f 5f       	subi	r22, 0xFF	; 255
 73c:	7f 4f       	sbci	r23, 0xFF	; 255
 73e:	8f ef       	ldi	r24, 0xFF	; 255
 740:	0e 94 2e 02 	call	0x45c	; 0x45c <EF_SpiTransfer>
 744:	c4 9a       	sbi	0x18, 4	; 24
 746:	89 81       	ldd	r24, Y+1	; 0x01
 748:	0f 90       	pop	r0
 74a:	df 91       	pop	r29
 74c:	cf 91       	pop	r28
 74e:	08 95       	ret

00000750 <EF_nrf24l01_writeregister>:
 750:	cf 93       	push	r28
 752:	c6 2f       	mov	r28, r22
 754:	c4 98       	cbi	0x18, 4	; 24
 756:	8f 71       	andi	r24, 0x1F	; 31
 758:	60 e0       	ldi	r22, 0x00	; 0
 75a:	70 e0       	ldi	r23, 0x00	; 0
 75c:	80 62       	ori	r24, 0x20	; 32
 75e:	0e 94 2e 02 	call	0x45c	; 0x45c <EF_SpiTransfer>
 762:	60 e0       	ldi	r22, 0x00	; 0
 764:	70 e0       	ldi	r23, 0x00	; 0
 766:	8c 2f       	mov	r24, r28
 768:	0e 94 2e 02 	call	0x45c	; 0x45c <EF_SpiTransfer>
 76c:	c4 9a       	sbi	0x18, 4	; 24
 76e:	cf 91       	pop	r28
 770:	08 95       	ret

00000772 <EF_nrf24l01_writeregisters>:
 772:	ef 92       	push	r14
 774:	ff 92       	push	r15
 776:	0f 93       	push	r16
 778:	1f 93       	push	r17
 77a:	cf 93       	push	r28
 77c:	df 93       	push	r29
 77e:	16 2f       	mov	r17, r22
 780:	f7 2e       	mov	r15, r23
 782:	04 2f       	mov	r16, r20
 784:	c4 98       	cbi	0x18, 4	; 24
 786:	8f 71       	andi	r24, 0x1F	; 31
 788:	60 e0       	ldi	r22, 0x00	; 0
 78a:	70 e0       	ldi	r23, 0x00	; 0
 78c:	80 62       	ori	r24, 0x20	; 32
 78e:	0e 94 2e 02 	call	0x45c	; 0x45c <EF_SpiTransfer>
 792:	e1 2e       	mov	r14, r17
 794:	c1 2f       	mov	r28, r17
 796:	df 2d       	mov	r29, r15
 798:	8c 2f       	mov	r24, r28
 79a:	8e 19       	sub	r24, r14
 79c:	80 17       	cp	r24, r16
 79e:	30 f4       	brcc	.+12     	; 0x7ac <EF_nrf24l01_writeregisters+0x3a>
 7a0:	60 e0       	ldi	r22, 0x00	; 0
 7a2:	70 e0       	ldi	r23, 0x00	; 0
 7a4:	89 91       	ld	r24, Y+
 7a6:	0e 94 2e 02 	call	0x45c	; 0x45c <EF_SpiTransfer>
 7aa:	f6 cf       	rjmp	.-20     	; 0x798 <EF_nrf24l01_writeregisters+0x26>
 7ac:	c4 9a       	sbi	0x18, 4	; 24
 7ae:	df 91       	pop	r29
 7b0:	cf 91       	pop	r28
 7b2:	1f 91       	pop	r17
 7b4:	0f 91       	pop	r16
 7b6:	ff 90       	pop	r15
 7b8:	ef 90       	pop	r14
 7ba:	08 95       	ret

000007bc <nrf24l01_revaddress>:
 7bc:	20 e0       	ldi	r18, 0x00	; 0
 7be:	30 e0       	ldi	r19, 0x00	; 0
 7c0:	04 96       	adiw	r24, 0x04	; 4
 7c2:	fb 01       	movw	r30, r22
 7c4:	e2 0f       	add	r30, r18
 7c6:	f3 1f       	adc	r31, r19
 7c8:	dc 01       	movw	r26, r24
 7ca:	a2 1b       	sub	r26, r18
 7cc:	b3 0b       	sbc	r27, r19
 7ce:	4c 91       	ld	r20, X
 7d0:	40 83       	st	Z, r20
 7d2:	2f 5f       	subi	r18, 0xFF	; 255
 7d4:	3f 4f       	sbci	r19, 0xFF	; 255
 7d6:	25 30       	cpi	r18, 0x05	; 5
 7d8:	31 05       	cpc	r19, r1
 7da:	99 f7       	brne	.-26     	; 0x7c2 <nrf24l01_revaddress+0x6>
 7dc:	08 95       	ret

000007de <nrf24l01_setrxaddr>:
 7de:	cf 93       	push	r28
 7e0:	df 93       	push	r29
 7e2:	00 d0       	rcall	.+0      	; 0x7e4 <nrf24l01_setrxaddr+0x6>
 7e4:	00 d0       	rcall	.+0      	; 0x7e6 <nrf24l01_setrxaddr+0x8>
 7e6:	1f 92       	push	r1
 7e8:	cd b7       	in	r28, 0x3d	; 61
 7ea:	de b7       	in	r29, 0x3e	; 62
 7ec:	28 2f       	mov	r18, r24
 7ee:	cb 01       	movw	r24, r22
 7f0:	21 11       	cpse	r18, r1
 7f2:	13 c0       	rjmp	.+38     	; 0x81a <nrf24l01_setrxaddr+0x3c>
 7f4:	25 e0       	ldi	r18, 0x05	; 5
 7f6:	fb 01       	movw	r30, r22
 7f8:	ae e7       	ldi	r26, 0x7E	; 126
 7fa:	b0 e0       	ldi	r27, 0x00	; 0
 7fc:	01 90       	ld	r0, Z+
 7fe:	0d 92       	st	X+, r0
 800:	2a 95       	dec	r18
 802:	e1 f7       	brne	.-8      	; 0x7fc <nrf24l01_setrxaddr+0x1e>
 804:	be 01       	movw	r22, r28
 806:	6f 5f       	subi	r22, 0xFF	; 255
 808:	7f 4f       	sbci	r23, 0xFF	; 255
 80a:	0e 94 de 03 	call	0x7bc	; 0x7bc <nrf24l01_revaddress>
 80e:	45 e0       	ldi	r20, 0x05	; 5
 810:	be 01       	movw	r22, r28
 812:	6f 5f       	subi	r22, 0xFF	; 255
 814:	7f 4f       	sbci	r23, 0xFF	; 255
 816:	8a e0       	ldi	r24, 0x0A	; 10
 818:	14 c0       	rjmp	.+40     	; 0x842 <nrf24l01_setrxaddr+0x64>
 81a:	21 30       	cpi	r18, 0x01	; 1
 81c:	a9 f4       	brne	.+42     	; 0x848 <nrf24l01_setrxaddr+0x6a>
 81e:	25 e0       	ldi	r18, 0x05	; 5
 820:	fb 01       	movw	r30, r22
 822:	a9 e7       	ldi	r26, 0x79	; 121
 824:	b0 e0       	ldi	r27, 0x00	; 0
 826:	01 90       	ld	r0, Z+
 828:	0d 92       	st	X+, r0
 82a:	2a 95       	dec	r18
 82c:	e1 f7       	brne	.-8      	; 0x826 <nrf24l01_setrxaddr+0x48>
 82e:	be 01       	movw	r22, r28
 830:	6f 5f       	subi	r22, 0xFF	; 255
 832:	7f 4f       	sbci	r23, 0xFF	; 255
 834:	0e 94 de 03 	call	0x7bc	; 0x7bc <nrf24l01_revaddress>
 838:	45 e0       	ldi	r20, 0x05	; 5
 83a:	be 01       	movw	r22, r28
 83c:	6f 5f       	subi	r22, 0xFF	; 255
 83e:	7f 4f       	sbci	r23, 0xFF	; 255
 840:	8b e0       	ldi	r24, 0x0B	; 11
 842:	0e 94 b9 03 	call	0x772	; 0x772 <EF_nrf24l01_writeregisters>
 846:	38 c0       	rjmp	.+112    	; 0x8b8 <__stack+0x59>
 848:	22 30       	cpi	r18, 0x02	; 2
 84a:	61 f4       	brne	.+24     	; 0x864 <__stack+0x5>
 84c:	25 e0       	ldi	r18, 0x05	; 5
 84e:	fb 01       	movw	r30, r22
 850:	a4 e7       	ldi	r26, 0x74	; 116
 852:	b0 e0       	ldi	r27, 0x00	; 0
 854:	01 90       	ld	r0, Z+
 856:	0d 92       	st	X+, r0
 858:	2a 95       	dec	r18
 85a:	e1 f7       	brne	.-8      	; 0x854 <nrf24l01_setrxaddr+0x76>
 85c:	fb 01       	movw	r30, r22
 85e:	64 81       	ldd	r22, Z+4	; 0x04
 860:	8c e0       	ldi	r24, 0x0C	; 12
 862:	28 c0       	rjmp	.+80     	; 0x8b4 <__stack+0x55>
 864:	23 30       	cpi	r18, 0x03	; 3
 866:	61 f4       	brne	.+24     	; 0x880 <__stack+0x21>
 868:	25 e0       	ldi	r18, 0x05	; 5
 86a:	fb 01       	movw	r30, r22
 86c:	af e6       	ldi	r26, 0x6F	; 111
 86e:	b0 e0       	ldi	r27, 0x00	; 0
 870:	01 90       	ld	r0, Z+
 872:	0d 92       	st	X+, r0
 874:	2a 95       	dec	r18
 876:	e1 f7       	brne	.-8      	; 0x870 <__stack+0x11>
 878:	fb 01       	movw	r30, r22
 87a:	64 81       	ldd	r22, Z+4	; 0x04
 87c:	8d e0       	ldi	r24, 0x0D	; 13
 87e:	1a c0       	rjmp	.+52     	; 0x8b4 <__stack+0x55>
 880:	24 30       	cpi	r18, 0x04	; 4
 882:	61 f4       	brne	.+24     	; 0x89c <__stack+0x3d>
 884:	25 e0       	ldi	r18, 0x05	; 5
 886:	fb 01       	movw	r30, r22
 888:	aa e6       	ldi	r26, 0x6A	; 106
 88a:	b0 e0       	ldi	r27, 0x00	; 0
 88c:	01 90       	ld	r0, Z+
 88e:	0d 92       	st	X+, r0
 890:	2a 95       	dec	r18
 892:	e1 f7       	brne	.-8      	; 0x88c <__stack+0x2d>
 894:	fb 01       	movw	r30, r22
 896:	64 81       	ldd	r22, Z+4	; 0x04
 898:	8e e0       	ldi	r24, 0x0E	; 14
 89a:	0c c0       	rjmp	.+24     	; 0x8b4 <__stack+0x55>
 89c:	25 30       	cpi	r18, 0x05	; 5
 89e:	61 f4       	brne	.+24     	; 0x8b8 <__stack+0x59>
 8a0:	fb 01       	movw	r30, r22
 8a2:	a5 e6       	ldi	r26, 0x65	; 101
 8a4:	b0 e0       	ldi	r27, 0x00	; 0
 8a6:	01 90       	ld	r0, Z+
 8a8:	0d 92       	st	X+, r0
 8aa:	2a 95       	dec	r18
 8ac:	e1 f7       	brne	.-8      	; 0x8a6 <__stack+0x47>
 8ae:	fb 01       	movw	r30, r22
 8b0:	64 81       	ldd	r22, Z+4	; 0x04
 8b2:	8f e0       	ldi	r24, 0x0F	; 15
 8b4:	0e 94 a8 03 	call	0x750	; 0x750 <EF_nrf24l01_writeregister>
 8b8:	0f 90       	pop	r0
 8ba:	0f 90       	pop	r0
 8bc:	0f 90       	pop	r0
 8be:	0f 90       	pop	r0
 8c0:	0f 90       	pop	r0
 8c2:	df 91       	pop	r29
 8c4:	cf 91       	pop	r28
 8c6:	08 95       	ret

000008c8 <nrf24l01_settxaddr>:
 8c8:	cf 93       	push	r28
 8ca:	df 93       	push	r29
 8cc:	00 d0       	rcall	.+0      	; 0x8ce <nrf24l01_settxaddr+0x6>
 8ce:	00 d0       	rcall	.+0      	; 0x8d0 <nrf24l01_settxaddr+0x8>
 8d0:	1f 92       	push	r1
 8d2:	cd b7       	in	r28, 0x3d	; 61
 8d4:	de b7       	in	r29, 0x3e	; 62
 8d6:	25 e0       	ldi	r18, 0x05	; 5
 8d8:	fc 01       	movw	r30, r24
 8da:	a0 e6       	ldi	r26, 0x60	; 96
 8dc:	b0 e0       	ldi	r27, 0x00	; 0
 8de:	01 90       	ld	r0, Z+
 8e0:	0d 92       	st	X+, r0
 8e2:	2a 95       	dec	r18
 8e4:	e1 f7       	brne	.-8      	; 0x8de <nrf24l01_settxaddr+0x16>
 8e6:	be 01       	movw	r22, r28
 8e8:	6f 5f       	subi	r22, 0xFF	; 255
 8ea:	7f 4f       	sbci	r23, 0xFF	; 255
 8ec:	0e 94 de 03 	call	0x7bc	; 0x7bc <nrf24l01_revaddress>
 8f0:	45 e0       	ldi	r20, 0x05	; 5
 8f2:	be 01       	movw	r22, r28
 8f4:	6f 5f       	subi	r22, 0xFF	; 255
 8f6:	7f 4f       	sbci	r23, 0xFF	; 255
 8f8:	8a e0       	ldi	r24, 0x0A	; 10
 8fa:	0e 94 b9 03 	call	0x772	; 0x772 <EF_nrf24l01_writeregisters>
 8fe:	45 e0       	ldi	r20, 0x05	; 5
 900:	be 01       	movw	r22, r28
 902:	6f 5f       	subi	r22, 0xFF	; 255
 904:	7f 4f       	sbci	r23, 0xFF	; 255
 906:	80 e1       	ldi	r24, 0x10	; 16
 908:	0e 94 b9 03 	call	0x772	; 0x772 <EF_nrf24l01_writeregisters>
 90c:	0f 90       	pop	r0
 90e:	0f 90       	pop	r0
 910:	0f 90       	pop	r0
 912:	0f 90       	pop	r0
 914:	0f 90       	pop	r0
 916:	df 91       	pop	r29
 918:	cf 91       	pop	r28
 91a:	08 95       	ret

0000091c <nrf24l01_flushRXfifo>:
 91c:	c4 98       	cbi	0x18, 4	; 24
 91e:	60 e0       	ldi	r22, 0x00	; 0
 920:	70 e0       	ldi	r23, 0x00	; 0
 922:	82 ee       	ldi	r24, 0xE2	; 226
 924:	0e 94 2e 02 	call	0x45c	; 0x45c <EF_SpiTransfer>
 928:	60 e0       	ldi	r22, 0x00	; 0
 92a:	70 e0       	ldi	r23, 0x00	; 0
 92c:	8f ef       	ldi	r24, 0xFF	; 255
 92e:	0e 94 2e 02 	call	0x45c	; 0x45c <EF_SpiTransfer>
 932:	c4 9a       	sbi	0x18, 4	; 24
 934:	08 95       	ret

00000936 <nrf24l01_flushTXfifo>:
 936:	c4 98       	cbi	0x18, 4	; 24
 938:	60 e0       	ldi	r22, 0x00	; 0
 93a:	70 e0       	ldi	r23, 0x00	; 0
 93c:	81 ee       	ldi	r24, 0xE1	; 225
 93e:	0e 94 2e 02 	call	0x45c	; 0x45c <EF_SpiTransfer>
 942:	60 e0       	ldi	r22, 0x00	; 0
 944:	70 e0       	ldi	r23, 0x00	; 0
 946:	8f ef       	ldi	r24, 0xFF	; 255
 948:	0e 94 2e 02 	call	0x45c	; 0x45c <EF_SpiTransfer>
 94c:	c4 9a       	sbi	0x18, 4	; 24
 94e:	08 95       	ret

00000950 <nrf24l01_setRXMode>:
 950:	6e e7       	ldi	r22, 0x7E	; 126
 952:	70 e0       	ldi	r23, 0x00	; 0
 954:	80 e0       	ldi	r24, 0x00	; 0
 956:	0e 94 ef 03 	call	0x7de	; 0x7de <nrf24l01_setrxaddr>
 95a:	80 e0       	ldi	r24, 0x00	; 0
 95c:	0e 94 90 03 	call	0x720	; 0x720 <EF_nrf24l01_readregister>
 960:	68 2f       	mov	r22, r24
 962:	61 60       	ori	r22, 0x01	; 1
 964:	80 e0       	ldi	r24, 0x00	; 0
 966:	0e 94 a8 03 	call	0x750	; 0x750 <EF_nrf24l01_writeregister>
 96a:	80 e0       	ldi	r24, 0x00	; 0
 96c:	0e 94 90 03 	call	0x720	; 0x720 <EF_nrf24l01_readregister>
 970:	68 2f       	mov	r22, r24
 972:	62 60       	ori	r22, 0x02	; 2
 974:	80 e0       	ldi	r24, 0x00	; 0
 976:	0e 94 a8 03 	call	0x750	; 0x750 <EF_nrf24l01_writeregister>
 97a:	60 e7       	ldi	r22, 0x70	; 112
 97c:	87 e0       	ldi	r24, 0x07	; 7
 97e:	0e 94 a8 03 	call	0x750	; 0x750 <EF_nrf24l01_writeregister>
 982:	0e 94 8e 04 	call	0x91c	; 0x91c <nrf24l01_flushRXfifo>
 986:	0e 94 9b 04 	call	0x936	; 0x936 <nrf24l01_flushTXfifo>
 98a:	c3 9a       	sbi	0x18, 3	; 24
 98c:	8b e2       	ldi	r24, 0x2B	; 43
 98e:	91 e0       	ldi	r25, 0x01	; 1
 990:	01 97       	sbiw	r24, 0x01	; 1
 992:	f1 f7       	brne	.-4      	; 0x990 <nrf24l01_setRXMode+0x40>
 994:	00 c0       	rjmp	.+0      	; 0x996 <nrf24l01_setRXMode+0x46>
 996:	00 00       	nop
 998:	08 95       	ret

0000099a <EF_nrf24l01_getstatus>:
 99a:	cf 93       	push	r28
 99c:	df 93       	push	r29
 99e:	1f 92       	push	r1
 9a0:	cd b7       	in	r28, 0x3d	; 61
 9a2:	de b7       	in	r29, 0x3e	; 62
 9a4:	19 82       	std	Y+1, r1	; 0x01
 9a6:	c4 98       	cbi	0x18, 4	; 24
 9a8:	be 01       	movw	r22, r28
 9aa:	6f 5f       	subi	r22, 0xFF	; 255
 9ac:	7f 4f       	sbci	r23, 0xFF	; 255
 9ae:	8f ef       	ldi	r24, 0xFF	; 255
 9b0:	0e 94 2e 02 	call	0x45c	; 0x45c <EF_SpiTransfer>
 9b4:	c4 9a       	sbi	0x18, 4	; 24
 9b6:	89 81       	ldd	r24, Y+1	; 0x01
 9b8:	0f 90       	pop	r0
 9ba:	df 91       	pop	r29
 9bc:	cf 91       	pop	r28
 9be:	08 95       	ret

000009c0 <EF_nrf24l01_readready>:
 9c0:	cf 93       	push	r28
 9c2:	df 93       	push	r29
 9c4:	ec 01       	movw	r28, r24
 9c6:	0e 94 cd 04 	call	0x99a	; 0x99a <EF_nrf24l01_getstatus>
 9ca:	98 2f       	mov	r25, r24
 9cc:	80 74       	andi	r24, 0x40	; 64
 9ce:	96 ff       	sbrs	r25, 6
 9d0:	05 c0       	rjmp	.+10     	; 0x9dc <EF_nrf24l01_readready+0x1c>
 9d2:	20 97       	sbiw	r28, 0x00	; 0
 9d4:	19 f0       	breq	.+6      	; 0x9dc <EF_nrf24l01_readready+0x1c>
 9d6:	96 95       	lsr	r25
 9d8:	97 70       	andi	r25, 0x07	; 7
 9da:	98 83       	st	Y, r25
 9dc:	df 91       	pop	r29
 9de:	cf 91       	pop	r28
 9e0:	08 95       	ret

000009e2 <EF_nrf24l01_readData>:
 9e2:	0f 93       	push	r16
 9e4:	1f 93       	push	r17
 9e6:	cf 93       	push	r28
 9e8:	df 93       	push	r29
 9ea:	8c 01       	movw	r16, r24
 9ec:	c4 98       	cbi	0x18, 4	; 24
 9ee:	60 e0       	ldi	r22, 0x00	; 0
 9f0:	70 e0       	ldi	r23, 0x00	; 0
 9f2:	81 e6       	ldi	r24, 0x61	; 97
 9f4:	0e 94 2e 02 	call	0x45c	; 0x45c <EF_SpiTransfer>
 9f8:	c0 e0       	ldi	r28, 0x00	; 0
 9fa:	d0 e0       	ldi	r29, 0x00	; 0
 9fc:	b8 01       	movw	r22, r16
 9fe:	6c 0f       	add	r22, r28
 a00:	7d 1f       	adc	r23, r29
 a02:	8f ef       	ldi	r24, 0xFF	; 255
 a04:	0e 94 2e 02 	call	0x45c	; 0x45c <EF_SpiTransfer>
 a08:	21 96       	adiw	r28, 0x01	; 1
 a0a:	c0 32       	cpi	r28, 0x20	; 32
 a0c:	d1 05       	cpc	r29, r1
 a0e:	b1 f7       	brne	.-20     	; 0x9fc <EF_nrf24l01_readData+0x1a>
 a10:	c4 9a       	sbi	0x18, 4	; 24
 a12:	60 e4       	ldi	r22, 0x40	; 64
 a14:	87 e0       	ldi	r24, 0x07	; 7
 a16:	0e 94 a8 03 	call	0x750	; 0x750 <EF_nrf24l01_writeregister>
 a1a:	0e 94 cd 04 	call	0x99a	; 0x99a <EF_nrf24l01_getstatus>
 a1e:	85 ff       	sbrs	r24, 5
 a20:	04 c0       	rjmp	.+8      	; 0xa2a <EF_nrf24l01_readData+0x48>
 a22:	60 e2       	ldi	r22, 0x20	; 32
 a24:	87 e0       	ldi	r24, 0x07	; 7
 a26:	0e 94 a8 03 	call	0x750	; 0x750 <EF_nrf24l01_writeregister>
 a2a:	0e 94 cd 04 	call	0x99a	; 0x99a <EF_nrf24l01_getstatus>
 a2e:	86 fb       	bst	r24, 6
 a30:	88 27       	eor	r24, r24
 a32:	80 f9       	bld	r24, 0
 a34:	df 91       	pop	r29
 a36:	cf 91       	pop	r28
 a38:	1f 91       	pop	r17
 a3a:	0f 91       	pop	r16
 a3c:	08 95       	ret

00000a3e <nrf24l01_setPwrlevel>:
 a3e:	cf 93       	push	r28
 a40:	86 e0       	ldi	r24, 0x06	; 6
 a42:	0e 94 90 03 	call	0x720	; 0x720 <EF_nrf24l01_readregister>
 a46:	c8 2f       	mov	r28, r24
 a48:	c6 60       	ori	r28, 0x06	; 6
 a4a:	6c 2f       	mov	r22, r28
 a4c:	86 e0       	ldi	r24, 0x06	; 6
 a4e:	0e 94 a8 03 	call	0x750	; 0x750 <EF_nrf24l01_writeregister>
 a52:	8c 2f       	mov	r24, r28
 a54:	cf 91       	pop	r28
 a56:	08 95       	ret

00000a58 <nrf24l01_setDataRate>:
 a58:	cf 93       	push	r28
 a5a:	86 e0       	ldi	r24, 0x06	; 6
 a5c:	0e 94 90 03 	call	0x720	; 0x720 <EF_nrf24l01_readregister>
 a60:	c8 2f       	mov	r28, r24
 a62:	c7 7d       	andi	r28, 0xD7	; 215
 a64:	6c 2f       	mov	r22, r28
 a66:	86 e0       	ldi	r24, 0x06	; 6
 a68:	0e 94 a8 03 	call	0x750	; 0x750 <EF_nrf24l01_writeregister>
 a6c:	8c 2f       	mov	r24, r28
 a6e:	cf 91       	pop	r28
 a70:	08 95       	ret

00000a72 <nrf24l01_setcrcLength>:
 a72:	cf 93       	push	r28
 a74:	80 e0       	ldi	r24, 0x00	; 0
 a76:	0e 94 90 03 	call	0x720	; 0x720 <EF_nrf24l01_readregister>
 a7a:	c8 2f       	mov	r28, r24
 a7c:	cc 60       	ori	r28, 0x0C	; 12
 a7e:	6c 2f       	mov	r22, r28
 a80:	80 e0       	ldi	r24, 0x00	; 0
 a82:	0e 94 a8 03 	call	0x750	; 0x750 <EF_nrf24l01_writeregister>
 a86:	8c 2f       	mov	r24, r28
 a88:	cf 91       	pop	r28
 a8a:	08 95       	ret

00000a8c <EF_nrf24l01_init>:
 a8c:	cf 93       	push	r28
 a8e:	df 93       	push	r29
 a90:	d8 2f       	mov	r29, r24
 a92:	bc 9a       	sbi	0x17, 4	; 23
 a94:	bb 9a       	sbi	0x17, 3	; 23
 a96:	81 e0       	ldi	r24, 0x01	; 1
 a98:	0e 94 1e 02 	call	0x43c	; 0x43c <EF_SpiInit>
 a9c:	c3 98       	cbi	0x18, 3	; 24
 a9e:	c4 9a       	sbi	0x18, 4	; 24
 aa0:	8f e0       	ldi	r24, 0x0F	; 15
 aa2:	97 e2       	ldi	r25, 0x27	; 39
 aa4:	01 97       	sbiw	r24, 0x01	; 1
 aa6:	f1 f7       	brne	.-4      	; 0xaa4 <EF_nrf24l01_init+0x18>
 aa8:	00 c0       	rjmp	.+0      	; 0xaaa <EF_nrf24l01_init+0x1e>
 aaa:	00 00       	nop
 aac:	0e 94 1f 05 	call	0xa3e	; 0xa3e <nrf24l01_setPwrlevel>
 ab0:	0e 94 2c 05 	call	0xa58	; 0xa58 <nrf24l01_setDataRate>
 ab4:	c8 2f       	mov	r28, r24
 ab6:	86 e0       	ldi	r24, 0x06	; 6
 ab8:	0e 94 90 03 	call	0x720	; 0x720 <EF_nrf24l01_readregister>
 abc:	8c 17       	cp	r24, r28
 abe:	59 f0       	breq	.+22     	; 0xad6 <EF_nrf24l01_init+0x4a>
 ac0:	8e e6       	ldi	r24, 0x6E	; 110
 ac2:	91 e0       	ldi	r25, 0x01	; 1
 ac4:	0e 94 2d 03 	call	0x65a	; 0x65a <EF_void_UART_SendString>
 ac8:	86 e0       	ldi	r24, 0x06	; 6
 aca:	0e 94 90 03 	call	0x720	; 0x720 <EF_nrf24l01_readregister>
 ace:	0e 94 fb 02 	call	0x5f6	; 0x5f6 <EF_void_UART_PutChar>
 ad2:	c4 e0       	ldi	r28, 0x04	; 4
 ad4:	01 c0       	rjmp	.+2      	; 0xad8 <EF_nrf24l01_init+0x4c>
 ad6:	c0 e0       	ldi	r28, 0x00	; 0
 ad8:	0e 94 39 05 	call	0xa72	; 0xa72 <nrf24l01_setcrcLength>
 adc:	6f ef       	ldi	r22, 0xFF	; 255
 ade:	84 e0       	ldi	r24, 0x04	; 4
 ae0:	0e 94 a8 03 	call	0x750	; 0x750 <EF_nrf24l01_writeregister>
 ae4:	84 e0       	ldi	r24, 0x04	; 4
 ae6:	0e 94 90 03 	call	0x720	; 0x720 <EF_nrf24l01_readregister>
 aea:	8f 3f       	cpi	r24, 0xFF	; 255
 aec:	51 f0       	breq	.+20     	; 0xb02 <EF_nrf24l01_init+0x76>
 aee:	8e e7       	ldi	r24, 0x7E	; 126
 af0:	91 e0       	ldi	r25, 0x01	; 1
 af2:	0e 94 2d 03 	call	0x65a	; 0x65a <EF_void_UART_SendString>
 af6:	84 e0       	ldi	r24, 0x04	; 4
 af8:	0e 94 90 03 	call	0x720	; 0x720 <EF_nrf24l01_readregister>
 afc:	0e 94 fb 02 	call	0x5f6	; 0x5f6 <EF_void_UART_PutChar>
 b00:	c5 e0       	ldi	r28, 0x05	; 5
 b02:	6d 2f       	mov	r22, r29
 b04:	85 e0       	ldi	r24, 0x05	; 5
 b06:	0e 94 a8 03 	call	0x750	; 0x750 <EF_nrf24l01_writeregister>
 b0a:	85 e0       	ldi	r24, 0x05	; 5
 b0c:	0e 94 90 03 	call	0x720	; 0x720 <EF_nrf24l01_readregister>
 b10:	8d 17       	cp	r24, r29
 b12:	51 f0       	breq	.+20     	; 0xb28 <EF_nrf24l01_init+0x9c>
 b14:	83 e9       	ldi	r24, 0x93	; 147
 b16:	91 e0       	ldi	r25, 0x01	; 1
 b18:	0e 94 2d 03 	call	0x65a	; 0x65a <EF_void_UART_SendString>
 b1c:	85 e0       	ldi	r24, 0x05	; 5
 b1e:	0e 94 90 03 	call	0x720	; 0x720 <EF_nrf24l01_readregister>
 b22:	0e 94 fb 02 	call	0x5f6	; 0x5f6 <EF_void_UART_PutChar>
 b26:	c1 e0       	ldi	r28, 0x01	; 1
 b28:	60 e0       	ldi	r22, 0x00	; 0
 b2a:	82 e0       	ldi	r24, 0x02	; 2
 b2c:	0e 94 a8 03 	call	0x750	; 0x750 <EF_nrf24l01_writeregister>
 b30:	82 e0       	ldi	r24, 0x02	; 2
 b32:	0e 94 90 03 	call	0x720	; 0x720 <EF_nrf24l01_readregister>
 b36:	68 2f       	mov	r22, r24
 b38:	61 60       	ori	r22, 0x01	; 1
 b3a:	82 e0       	ldi	r24, 0x02	; 2
 b3c:	0e 94 a8 03 	call	0x750	; 0x750 <EF_nrf24l01_writeregister>
 b40:	82 e0       	ldi	r24, 0x02	; 2
 b42:	0e 94 90 03 	call	0x720	; 0x720 <EF_nrf24l01_readregister>
 b46:	68 2f       	mov	r22, r24
 b48:	64 60       	ori	r22, 0x04	; 4
 b4a:	82 e0       	ldi	r24, 0x02	; 2
 b4c:	0e 94 a8 03 	call	0x750	; 0x750 <EF_nrf24l01_writeregister>
 b50:	81 e0       	ldi	r24, 0x01	; 1
 b52:	0e 94 90 03 	call	0x720	; 0x720 <EF_nrf24l01_readregister>
 b56:	68 2f       	mov	r22, r24
 b58:	61 60       	ori	r22, 0x01	; 1
 b5a:	81 e0       	ldi	r24, 0x01	; 1
 b5c:	0e 94 a8 03 	call	0x750	; 0x750 <EF_nrf24l01_writeregister>
 b60:	81 e0       	ldi	r24, 0x01	; 1
 b62:	0e 94 90 03 	call	0x720	; 0x720 <EF_nrf24l01_readregister>
 b66:	68 2f       	mov	r22, r24
 b68:	62 60       	ori	r22, 0x02	; 2
 b6a:	81 e0       	ldi	r24, 0x01	; 1
 b6c:	0e 94 a8 03 	call	0x750	; 0x750 <EF_nrf24l01_writeregister>
 b70:	81 e0       	ldi	r24, 0x01	; 1
 b72:	0e 94 90 03 	call	0x720	; 0x720 <EF_nrf24l01_readregister>
 b76:	68 2f       	mov	r22, r24
 b78:	64 60       	ori	r22, 0x04	; 4
 b7a:	81 e0       	ldi	r24, 0x01	; 1
 b7c:	0e 94 a8 03 	call	0x750	; 0x750 <EF_nrf24l01_writeregister>
 b80:	81 e0       	ldi	r24, 0x01	; 1
 b82:	0e 94 90 03 	call	0x720	; 0x720 <EF_nrf24l01_readregister>
 b86:	68 2f       	mov	r22, r24
 b88:	68 60       	ori	r22, 0x08	; 8
 b8a:	81 e0       	ldi	r24, 0x01	; 1
 b8c:	0e 94 a8 03 	call	0x750	; 0x750 <EF_nrf24l01_writeregister>
 b90:	81 e0       	ldi	r24, 0x01	; 1
 b92:	0e 94 90 03 	call	0x720	; 0x720 <EF_nrf24l01_readregister>
 b96:	68 2f       	mov	r22, r24
 b98:	60 61       	ori	r22, 0x10	; 16
 b9a:	81 e0       	ldi	r24, 0x01	; 1
 b9c:	0e 94 a8 03 	call	0x750	; 0x750 <EF_nrf24l01_writeregister>
 ba0:	81 e0       	ldi	r24, 0x01	; 1
 ba2:	0e 94 90 03 	call	0x720	; 0x720 <EF_nrf24l01_readregister>
 ba6:	68 2f       	mov	r22, r24
 ba8:	60 62       	ori	r22, 0x20	; 32
 baa:	81 e0       	ldi	r24, 0x01	; 1
 bac:	0e 94 a8 03 	call	0x750	; 0x750 <EF_nrf24l01_writeregister>
 bb0:	66 e0       	ldi	r22, 0x06	; 6
 bb2:	8d e1       	ldi	r24, 0x1D	; 29
 bb4:	0e 94 a8 03 	call	0x750	; 0x750 <EF_nrf24l01_writeregister>
 bb8:	6f e3       	ldi	r22, 0x3F	; 63
 bba:	8c e1       	ldi	r24, 0x1C	; 28
 bbc:	0e 94 a8 03 	call	0x750	; 0x750 <EF_nrf24l01_writeregister>
 bc0:	6e e7       	ldi	r22, 0x7E	; 126
 bc2:	70 e0       	ldi	r23, 0x00	; 0
 bc4:	80 e0       	ldi	r24, 0x00	; 0
 bc6:	0e 94 ef 03 	call	0x7de	; 0x7de <nrf24l01_setrxaddr>
 bca:	69 e7       	ldi	r22, 0x79	; 121
 bcc:	70 e0       	ldi	r23, 0x00	; 0
 bce:	81 e0       	ldi	r24, 0x01	; 1
 bd0:	0e 94 ef 03 	call	0x7de	; 0x7de <nrf24l01_setrxaddr>
 bd4:	64 e7       	ldi	r22, 0x74	; 116
 bd6:	70 e0       	ldi	r23, 0x00	; 0
 bd8:	82 e0       	ldi	r24, 0x02	; 2
 bda:	0e 94 ef 03 	call	0x7de	; 0x7de <nrf24l01_setrxaddr>
 bde:	6f e6       	ldi	r22, 0x6F	; 111
 be0:	70 e0       	ldi	r23, 0x00	; 0
 be2:	83 e0       	ldi	r24, 0x03	; 3
 be4:	0e 94 ef 03 	call	0x7de	; 0x7de <nrf24l01_setrxaddr>
 be8:	6a e6       	ldi	r22, 0x6A	; 106
 bea:	70 e0       	ldi	r23, 0x00	; 0
 bec:	84 e0       	ldi	r24, 0x04	; 4
 bee:	0e 94 ef 03 	call	0x7de	; 0x7de <nrf24l01_setrxaddr>
 bf2:	65 e6       	ldi	r22, 0x65	; 101
 bf4:	70 e0       	ldi	r23, 0x00	; 0
 bf6:	85 e0       	ldi	r24, 0x05	; 5
 bf8:	0e 94 ef 03 	call	0x7de	; 0x7de <nrf24l01_setrxaddr>
 bfc:	80 e6       	ldi	r24, 0x60	; 96
 bfe:	90 e0       	ldi	r25, 0x00	; 0
 c00:	0e 94 64 04 	call	0x8c8	; 0x8c8 <nrf24l01_settxaddr>
 c04:	0e 94 a8 04 	call	0x950	; 0x950 <nrf24l01_setRXMode>
 c08:	8c 2f       	mov	r24, r28
 c0a:	df 91       	pop	r29
 c0c:	cf 91       	pop	r28
 c0e:	08 95       	ret

00000c10 <main>:
 c10:	cf 93       	push	r28
 c12:	df 93       	push	r29
 c14:	cd b7       	in	r28, 0x3d	; 61
 c16:	de b7       	in	r29, 0x3e	; 62
 c18:	ce 54       	subi	r28, 0x4E	; 78
 c1a:	d1 09       	sbc	r29, r1
 c1c:	0f b6       	in	r0, 0x3f	; 63
 c1e:	f8 94       	cli
 c20:	de bf       	out	0x3e, r29	; 62
 c22:	0f be       	out	0x3f, r0	; 63
 c24:	cd bf       	out	0x3d, r28	; 61
 c26:	2f 96       	adiw	r28, 0x0f	; 15
 c28:	1f ae       	std	Y+63, r1	; 0x3f
 c2a:	2f 97       	sbiw	r28, 0x0f	; 15
 c2c:	8e 01       	movw	r16, r28
 c2e:	0e 5b       	subi	r16, 0xBE	; 190
 c30:	1f 4f       	sbci	r17, 0xFF	; 255
 c32:	8c e0       	ldi	r24, 0x0C	; 12
 c34:	f8 01       	movw	r30, r16
 c36:	11 92       	st	Z+, r1
 c38:	8a 95       	dec	r24
 c3a:	e9 f7       	brne	.-6      	; 0xc36 <main+0x26>
 c3c:	0e 94 5a 00 	call	0xb4	; 0xb4 <EF_void_TimerInit>
 c40:	42 e0       	ldi	r20, 0x02	; 2
 c42:	50 e0       	ldi	r21, 0x00	; 0
 c44:	60 e0       	ldi	r22, 0x00	; 0
 c46:	70 e0       	ldi	r23, 0x00	; 0
 c48:	89 e0       	ldi	r24, 0x09	; 9
 c4a:	0e 94 6a 00 	call	0xd4	; 0xd4 <EF_void_TimerCreate>
 c4e:	81 e0       	ldi	r24, 0x01	; 1
 c50:	0e 94 1e 02 	call	0x43c	; 0x43c <EF_SpiInit>
 c54:	83 e8       	ldi	r24, 0x83	; 131
 c56:	90 e0       	ldi	r25, 0x00	; 0
 c58:	0e 94 94 02 	call	0x528	; 0x528 <EF_void_UART_Init>
 c5c:	8c e5       	ldi	r24, 0x5C	; 92
 c5e:	0e 94 46 05 	call	0xa8c	; 0xa8c <EF_nrf24l01_init>
 c62:	89 ea       	ldi	r24, 0xA9	; 169
 c64:	91 e0       	ldi	r25, 0x01	; 1
 c66:	0e 94 2d 03 	call	0x65a	; 0x65a <EF_void_UART_SendString>
 c6a:	fe 01       	movw	r30, r28
 c6c:	b2 96       	adiw	r30, 0x22	; 34
 c6e:	cf 01       	movw	r24, r30
 c70:	80 96       	adiw	r24, 0x20	; 32
 c72:	7f 01       	movw	r14, r30
 c74:	11 92       	st	Z+, r1
 c76:	e8 17       	cp	r30, r24
 c78:	f9 07       	cpc	r31, r25
 c7a:	e1 f7       	brne	.-8      	; 0xc74 <main+0x64>
 c7c:	89 e0       	ldi	r24, 0x09	; 9
 c7e:	0e 94 cb 00 	call	0x196	; 0x196 <EF_void_TimerStart>
 c82:	d1 2c       	mov	r13, r1
 c84:	80 e2       	ldi	r24, 0x20	; 32
 c86:	b8 2e       	mov	r11, r24
 c88:	f7 01       	movw	r30, r14
 c8a:	8b 2d       	mov	r24, r11
 c8c:	11 92       	st	Z+, r1
 c8e:	8a 95       	dec	r24
 c90:	e9 f7       	brne	.-6      	; 0xc8c <main+0x7c>
 c92:	ce 01       	movw	r24, r28
 c94:	82 5b       	subi	r24, 0xB2	; 178
 c96:	9f 4f       	sbci	r25, 0xFF	; 255
 c98:	0e 94 e0 04 	call	0x9c0	; 0x9c0 <EF_nrf24l01_readready>
 c9c:	88 23       	and	r24, r24
 c9e:	a1 f3       	breq	.-24     	; 0xc88 <main+0x78>
 ca0:	c7 01       	movw	r24, r14
 ca2:	0e 94 f1 04 	call	0x9e2	; 0x9e2 <EF_nrf24l01_readData>
 ca6:	be 01       	movw	r22, r28
 ca8:	6f 5f       	subi	r22, 0xFF	; 255
 caa:	7f 4f       	sbci	r23, 0xFF	; 255
 cac:	c7 01       	movw	r24, r14
 cae:	0e 94 7f 01 	call	0x2fe	; 0x2fe <EF_parseFrame>
 cb2:	88 85       	ldd	r24, Y+8	; 0x08
 cb4:	81 11       	cpse	r24, r1
 cb6:	03 c0       	rjmp	.+6      	; 0xcbe <main+0xae>
 cb8:	8e eb       	ldi	r24, 0xBE	; 190
 cba:	91 e0       	ldi	r25, 0x01	; 1
 cbc:	58 c0       	rjmp	.+176    	; 0xd6e <main+0x15e>
 cbe:	82 30       	cpi	r24, 0x02	; 2
 cc0:	71 f4       	brne	.+28     	; 0xcde <main+0xce>
 cc2:	82 ee       	ldi	r24, 0xE2	; 226
 cc4:	91 e0       	ldi	r25, 0x01	; 1
 cc6:	0e 94 2d 03 	call	0x65a	; 0x65a <EF_void_UART_SendString>
 cca:	8b 85       	ldd	r24, Y+11	; 0x0b
 ccc:	90 e0       	ldi	r25, 0x00	; 0
 cce:	0e 94 ff 02 	call	0x5fe	; 0x5fe <EF_void_UART_Send_Integer>
 cd2:	8d e0       	ldi	r24, 0x0D	; 13
 cd4:	91 e0       	ldi	r25, 0x01	; 1
 cd6:	0e 94 2d 03 	call	0x65a	; 0x65a <EF_void_UART_SendString>
 cda:	d1 2c       	mov	r13, r1
 cdc:	d5 cf       	rjmp	.-86     	; 0xc88 <main+0x78>
 cde:	83 30       	cpi	r24, 0x03	; 3
 ce0:	11 f4       	brne	.+4      	; 0xce6 <main+0xd6>
 ce2:	d3 94       	inc	r13
 ce4:	d1 cf       	rjmp	.-94     	; 0xc88 <main+0x78>
 ce6:	81 30       	cpi	r24, 0x01	; 1
 ce8:	41 f5       	brne	.+80     	; 0xd3a <main+0x12a>
 cea:	82 e0       	ldi	r24, 0x02	; 2
 cec:	92 e0       	ldi	r25, 0x02	; 2
 cee:	0e 94 2d 03 	call	0x65a	; 0x65a <EF_void_UART_SendString>
 cf2:	80 91 0b 04 	lds	r24, 0x040B
 cf6:	81 11       	cpse	r24, r1
 cf8:	03 c0       	rjmp	.+6      	; 0xd00 <main+0xf0>
 cfa:	81 e2       	ldi	r24, 0x21	; 33
 cfc:	92 e0       	ldi	r25, 0x02	; 2
 cfe:	18 c0       	rjmp	.+48     	; 0xd30 <main+0x120>
 d00:	8a e3       	ldi	r24, 0x3A	; 58
 d02:	92 e0       	ldi	r25, 0x02	; 2
 d04:	0e 94 2d 03 	call	0x65a	; 0x65a <EF_void_UART_SendString>
 d08:	c1 2c       	mov	r12, r1
 d0a:	80 91 0b 04 	lds	r24, 0x040B
 d0e:	c8 16       	cp	r12, r24
 d10:	68 f4       	brcc	.+26     	; 0xd2c <main+0x11c>
 d12:	f8 01       	movw	r30, r16
 d14:	ec 0d       	add	r30, r12
 d16:	f1 1d       	adc	r31, r1
 d18:	80 81       	ld	r24, Z
 d1a:	90 e0       	ldi	r25, 0x00	; 0
 d1c:	0e 94 ff 02 	call	0x5fe	; 0x5fe <EF_void_UART_Send_Integer>
 d20:	8a e4       	ldi	r24, 0x4A	; 74
 d22:	92 e0       	ldi	r25, 0x02	; 2
 d24:	0e 94 2d 03 	call	0x65a	; 0x65a <EF_void_UART_SendString>
 d28:	c3 94       	inc	r12
 d2a:	ef cf       	rjmp	.-34     	; 0xd0a <main+0xfa>
 d2c:	8d e0       	ldi	r24, 0x0D	; 13
 d2e:	91 e0       	ldi	r25, 0x01	; 1
 d30:	0e 94 2d 03 	call	0x65a	; 0x65a <EF_void_UART_SendString>
 d34:	10 92 0b 04 	sts	0x040B, r1
 d38:	a7 cf       	rjmp	.-178    	; 0xc88 <main+0x78>
 d3a:	84 30       	cpi	r24, 0x04	; 4
 d3c:	09 f0       	breq	.+2      	; 0xd40 <main+0x130>
 d3e:	a4 cf       	rjmp	.-184    	; 0xc88 <main+0x78>
 d40:	8e e4       	ldi	r24, 0x4E	; 78
 d42:	92 e0       	ldi	r25, 0x02	; 2
 d44:	0e 94 2d 03 	call	0x65a	; 0x65a <EF_void_UART_SendString>
 d48:	82 e6       	ldi	r24, 0x62	; 98
 d4a:	92 e0       	ldi	r25, 0x02	; 2
 d4c:	0e 94 2d 03 	call	0x65a	; 0x65a <EF_void_UART_SendString>
 d50:	8d 2d       	mov	r24, r13
 d52:	90 e0       	ldi	r25, 0x00	; 0
 d54:	0e 94 ff 02 	call	0x5fe	; 0x5fe <EF_void_UART_Send_Integer>
 d58:	8c e6       	ldi	r24, 0x6C	; 108
 d5a:	92 e0       	ldi	r25, 0x02	; 2
 d5c:	0e 94 2d 03 	call	0x65a	; 0x65a <EF_void_UART_SendString>
 d60:	8b 85       	ldd	r24, Y+11	; 0x0b
 d62:	0e 94 14 02 	call	0x428	; 0x428 <get_DaysPerMonth>
 d66:	8d 11       	cpse	r24, r13
 d68:	05 c0       	rjmp	.+10     	; 0xd74 <main+0x164>
 d6a:	82 e7       	ldi	r24, 0x72	; 114
 d6c:	92 e0       	ldi	r25, 0x02	; 2
 d6e:	0e 94 2d 03 	call	0x65a	; 0x65a <EF_void_UART_SendString>
 d72:	8a cf       	rjmp	.-236    	; 0xc88 <main+0x78>
 d74:	8a e8       	ldi	r24, 0x8A	; 138
 d76:	92 e0       	ldi	r25, 0x02	; 2
 d78:	0e 94 2d 03 	call	0x65a	; 0x65a <EF_void_UART_SendString>
 d7c:	80 91 0b 04 	lds	r24, 0x040B
 d80:	f8 01       	movw	r30, r16
 d82:	e8 0f       	add	r30, r24
 d84:	f1 1d       	adc	r31, r1
 d86:	9b 85       	ldd	r25, Y+11	; 0x0b
 d88:	90 83       	st	Z, r25
 d8a:	8f 5f       	subi	r24, 0xFF	; 255
 d8c:	80 93 0b 04 	sts	0x040B, r24
 d90:	7b cf       	rjmp	.-266    	; 0xc88 <main+0x78>

00000d92 <__udivmodsi4>:
 d92:	a1 e2       	ldi	r26, 0x21	; 33
 d94:	1a 2e       	mov	r1, r26
 d96:	aa 1b       	sub	r26, r26
 d98:	bb 1b       	sub	r27, r27
 d9a:	fd 01       	movw	r30, r26
 d9c:	0d c0       	rjmp	.+26     	; 0xdb8 <__udivmodsi4_ep>

00000d9e <__udivmodsi4_loop>:
 d9e:	aa 1f       	adc	r26, r26
 da0:	bb 1f       	adc	r27, r27
 da2:	ee 1f       	adc	r30, r30
 da4:	ff 1f       	adc	r31, r31
 da6:	a2 17       	cp	r26, r18
 da8:	b3 07       	cpc	r27, r19
 daa:	e4 07       	cpc	r30, r20
 dac:	f5 07       	cpc	r31, r21
 dae:	20 f0       	brcs	.+8      	; 0xdb8 <__udivmodsi4_ep>
 db0:	a2 1b       	sub	r26, r18
 db2:	b3 0b       	sbc	r27, r19
 db4:	e4 0b       	sbc	r30, r20
 db6:	f5 0b       	sbc	r31, r21

00000db8 <__udivmodsi4_ep>:
 db8:	66 1f       	adc	r22, r22
 dba:	77 1f       	adc	r23, r23
 dbc:	88 1f       	adc	r24, r24
 dbe:	99 1f       	adc	r25, r25
 dc0:	1a 94       	dec	r1
 dc2:	69 f7       	brne	.-38     	; 0xd9e <__udivmodsi4_loop>
 dc4:	60 95       	com	r22
 dc6:	70 95       	com	r23
 dc8:	80 95       	com	r24
 dca:	90 95       	com	r25
 dcc:	9b 01       	movw	r18, r22
 dce:	ac 01       	movw	r20, r24
 dd0:	bd 01       	movw	r22, r26
 dd2:	cf 01       	movw	r24, r30
 dd4:	08 95       	ret

00000dd6 <__udivmodhi4>:
 dd6:	aa 1b       	sub	r26, r26
 dd8:	bb 1b       	sub	r27, r27
 dda:	51 e1       	ldi	r21, 0x11	; 17
 ddc:	07 c0       	rjmp	.+14     	; 0xdec <__udivmodhi4_ep>

00000dde <__udivmodhi4_loop>:
 dde:	aa 1f       	adc	r26, r26
 de0:	bb 1f       	adc	r27, r27
 de2:	a6 17       	cp	r26, r22
 de4:	b7 07       	cpc	r27, r23
 de6:	10 f0       	brcs	.+4      	; 0xdec <__udivmodhi4_ep>
 de8:	a6 1b       	sub	r26, r22
 dea:	b7 0b       	sbc	r27, r23

00000dec <__udivmodhi4_ep>:
 dec:	88 1f       	adc	r24, r24
 dee:	99 1f       	adc	r25, r25
 df0:	5a 95       	dec	r21
 df2:	a9 f7       	brne	.-22     	; 0xdde <__udivmodhi4_loop>
 df4:	80 95       	com	r24
 df6:	90 95       	com	r25
 df8:	bc 01       	movw	r22, r24
 dfa:	cd 01       	movw	r24, r26
 dfc:	08 95       	ret

00000dfe <memcmp>:
 dfe:	fb 01       	movw	r30, r22
 e00:	dc 01       	movw	r26, r24
 e02:	04 c0       	rjmp	.+8      	; 0xe0c <memcmp+0xe>
 e04:	8d 91       	ld	r24, X+
 e06:	01 90       	ld	r0, Z+
 e08:	80 19       	sub	r24, r0
 e0a:	21 f4       	brne	.+8      	; 0xe14 <memcmp+0x16>
 e0c:	41 50       	subi	r20, 0x01	; 1
 e0e:	50 40       	sbci	r21, 0x00	; 0
 e10:	c8 f7       	brcc	.-14     	; 0xe04 <memcmp+0x6>
 e12:	88 1b       	sub	r24, r24
 e14:	99 0b       	sbc	r25, r25
 e16:	08 95       	ret

00000e18 <itoa>:
 e18:	fb 01       	movw	r30, r22
 e1a:	9f 01       	movw	r18, r30
 e1c:	e8 94       	clt
 e1e:	42 30       	cpi	r20, 0x02	; 2
 e20:	c4 f0       	brlt	.+48     	; 0xe52 <itoa+0x3a>
 e22:	45 32       	cpi	r20, 0x25	; 37
 e24:	b4 f4       	brge	.+44     	; 0xe52 <itoa+0x3a>
 e26:	4a 30       	cpi	r20, 0x0A	; 10
 e28:	29 f4       	brne	.+10     	; 0xe34 <itoa+0x1c>
 e2a:	97 fb       	bst	r25, 7
 e2c:	1e f4       	brtc	.+6      	; 0xe34 <itoa+0x1c>
 e2e:	90 95       	com	r25
 e30:	81 95       	neg	r24
 e32:	9f 4f       	sbci	r25, 0xFF	; 255
 e34:	64 2f       	mov	r22, r20
 e36:	77 27       	eor	r23, r23
 e38:	0e 94 eb 06 	call	0xdd6	; 0xdd6 <__udivmodhi4>
 e3c:	80 5d       	subi	r24, 0xD0	; 208
 e3e:	8a 33       	cpi	r24, 0x3A	; 58
 e40:	0c f0       	brlt	.+2      	; 0xe44 <itoa+0x2c>
 e42:	89 5d       	subi	r24, 0xD9	; 217
 e44:	81 93       	st	Z+, r24
 e46:	cb 01       	movw	r24, r22
 e48:	00 97       	sbiw	r24, 0x00	; 0
 e4a:	a1 f7       	brne	.-24     	; 0xe34 <itoa+0x1c>
 e4c:	16 f4       	brtc	.+4      	; 0xe52 <itoa+0x3a>
 e4e:	5d e2       	ldi	r21, 0x2D	; 45
 e50:	51 93       	st	Z+, r21
 e52:	10 82       	st	Z, r1
 e54:	c9 01       	movw	r24, r18
 e56:	0c 94 2d 07 	jmp	0xe5a	; 0xe5a <strrev>

00000e5a <strrev>:
 e5a:	dc 01       	movw	r26, r24
 e5c:	fc 01       	movw	r30, r24
 e5e:	67 2f       	mov	r22, r23
 e60:	71 91       	ld	r23, Z+
 e62:	77 23       	and	r23, r23
 e64:	e1 f7       	brne	.-8      	; 0xe5e <strrev+0x4>
 e66:	32 97       	sbiw	r30, 0x02	; 2
 e68:	04 c0       	rjmp	.+8      	; 0xe72 <strrev+0x18>
 e6a:	7c 91       	ld	r23, X
 e6c:	6d 93       	st	X+, r22
 e6e:	70 83       	st	Z, r23
 e70:	62 91       	ld	r22, -Z
 e72:	ae 17       	cp	r26, r30
 e74:	bf 07       	cpc	r27, r31
 e76:	c8 f3       	brcs	.-14     	; 0xe6a <strrev+0x10>
 e78:	08 95       	ret

00000e7a <_exit>:
 e7a:	f8 94       	cli

00000e7c <__stop_program>:
 e7c:	ff cf       	rjmp	.-2      	; 0xe7c <__stop_program>
